(dp0
S'199'
p1
(idocument_reference
DocumentReference
p2
(dp3
S'length'
p4
F16.03721395380375
sS'file'
p5
g1
sS'max_freq'
p6
I5
sbsS'619'
p7
(idocument_reference
DocumentReference
p8
(dp9
g4
F11.873260199450012
sg5
g7
sg6
I3
sbsS'1200'
p10
(idocument_reference
DocumentReference
p11
(dp12
g4
F29.077068181588672
sg5
g10
sg6
I12
sbsS'452'
p13
(idocument_reference
DocumentReference
p14
(dp15
g4
F22.271552545870588
sg5
g13
sg6
I6
sbsS'1144'
p16
(idocument_reference
DocumentReference
p17
(dp18
g4
F20.543810713731716
sg5
g16
sg6
I7
sbsS'668'
p19
(idocument_reference
DocumentReference
p20
(dp21
g4
F21.497836728369702
sg5
g19
sg6
I5
sbsS'966'
p22
(idocument_reference
DocumentReference
p23
(dp24
g4
F14.893001299692084
sg5
g22
sg6
I5
sbsS'344'
p25
(idocument_reference
DocumentReference
p26
(dp27
g4
F17.960468607565712
sg5
g25
sg6
I4
sbsS'345'
p28
(idocument_reference
DocumentReference
p29
(dp30
g4
F31.513180816574398
sg5
g28
sg6
I10
sbsS'346'
p31
(idocument_reference
DocumentReference
p32
(dp33
g4
F25.43120498262035
sg5
g31
sg6
I6
sbsS'347'
p34
(idocument_reference
DocumentReference
p35
(dp36
g4
F24.857452442902
sg5
g34
sg6
I12
sbsS'340'
p37
(idocument_reference
DocumentReference
p38
(dp39
g4
F23.411313977838027
sg5
g37
sg6
I5
sbsS'341'
p40
(idocument_reference
DocumentReference
p41
(dp42
g4
F23.0739848242921
sg5
g40
sg6
I5
sbsS'342'
p43
(idocument_reference
DocumentReference
p44
(dp45
g4
F23.502627465300606
sg5
g43
sg6
I4
sbsS'343'
p46
(idocument_reference
DocumentReference
p47
(dp48
g4
F18.037661173540794
sg5
g46
sg6
I5
sbsS'810'
p49
(idocument_reference
DocumentReference
p50
(dp51
g4
F16.56382926580846
sg5
g49
sg6
I4
sbsS'811'
p52
(idocument_reference
DocumentReference
p53
(dp54
g4
F21.477550553931348
sg5
g52
sg6
I6
sbsS'812'
p55
(idocument_reference
DocumentReference
p56
(dp57
g4
F28.876230811832386
sg5
g55
sg6
I10
sbsS'813'
p58
(idocument_reference
DocumentReference
p59
(dp60
g4
F20.71112721363282
sg5
g58
sg6
I4
sbsS'348'
p61
(idocument_reference
DocumentReference
p62
(dp63
g4
F36.69880015109034
sg5
g61
sg6
I8
sbsS'349'
p64
(idocument_reference
DocumentReference
p65
(dp66
g4
F21.312571658258662
sg5
g64
sg6
I7
sbsS'816'
p67
(idocument_reference
DocumentReference
p68
(dp69
g4
F30.816328173547735
sg5
g67
sg6
I8
sbsS'817'
p70
(idocument_reference
DocumentReference
p71
(dp72
g4
F16.233517526776936
sg5
g70
sg6
I4
sbsS'664'
p73
(idocument_reference
DocumentReference
p74
(dp75
g4
F28.505473657251972
sg5
g73
sg6
I6
sbsS'719'
p76
(idocument_reference
DocumentReference
p77
(dp78
g4
F21.82800723157782
sg5
g76
sg6
I6
sbsS'718'
p79
(idocument_reference
DocumentReference
p80
(dp81
g4
F22.187118400801523
sg5
g79
sg6
I5
sbsS'717'
p82
(idocument_reference
DocumentReference
p83
(dp84
g4
F19.187758443843872
sg5
g82
sg6
I6
sbsS'716'
p85
(idocument_reference
DocumentReference
p86
(dp87
g4
F22.16567216614248
sg5
g85
sg6
I5
sbsS'715'
p88
(idocument_reference
DocumentReference
p89
(dp90
g4
F18.0237133966197
sg5
g88
sg6
I8
sbsS'714'
p91
(idocument_reference
DocumentReference
p92
(dp93
g4
F28.295312438286313
sg5
g91
sg6
I7
sbsS'713'
p94
(idocument_reference
DocumentReference
p95
(dp96
g4
F25.37526759310001
sg5
g94
sg6
I6
sbsS'712'
p97
(idocument_reference
DocumentReference
p98
(dp99
g4
F20.91667146085704
sg5
g97
sg6
I5
sbsS'711'
p100
(idocument_reference
DocumentReference
p101
(dp102
g4
F18.078118441552178
sg5
g100
sg6
I6
sbsS'710'
p103
(idocument_reference
DocumentReference
p104
(dp105
g4
F33.358425071683065
sg5
g103
sg6
I9
sbsS'618'
p106
(idocument_reference
DocumentReference
p107
(dp108
g4
F19.05112657773529
sg5
g106
sg6
I5
sbsS'915'
p109
(idocument_reference
DocumentReference
p110
(dp111
g4
F13.09577276018758
sg5
g109
sg6
I4
sbsS'420'
p112
(idocument_reference
DocumentReference
p113
(dp114
g4
F14.795455612742115
sg5
g112
sg6
I6
sbsS'917'
p115
(idocument_reference
DocumentReference
p116
(dp117
g4
F35.839949802552475
sg5
g115
sg6
I8
sbsS'1069'
p118
(idocument_reference
DocumentReference
p119
(dp120
g4
F20.87552858611308
sg5
g118
sg6
I4
sbsS'1068'
p121
(idocument_reference
DocumentReference
p122
(dp123
g4
F16.531040227294074
sg5
g121
sg6
I5
sbsS'916'
p124
(idocument_reference
DocumentReference
p125
(dp126
g4
F15.755372753396621
sg5
g124
sg6
I7
sbsS'1182'
p127
(idocument_reference
DocumentReference
p128
(dp129
g4
F12.088769955304407
sg5
g127
sg6
I4
sbsS'195'
p130
(idocument_reference
DocumentReference
p131
(dp132
g4
F23.280964821005465
sg5
g130
sg6
I6
sbsS'1061'
p133
(idocument_reference
DocumentReference
p134
(dp135
g4
F17.409298329659645
sg5
g133
sg6
I4
sbsS'1060'
p136
(idocument_reference
DocumentReference
p137
(dp138
g4
F17.961248592159595
sg5
g136
sg6
I4
sbsS'1063'
p139
(idocument_reference
DocumentReference
p140
(dp141
g4
F21.68703876185822
sg5
g139
sg6
I5
sbsS'1062'
p142
(idocument_reference
DocumentReference
p143
(dp144
g4
F27.949171780040444
sg5
g142
sg6
I10
sbsS'1065'
p145
(idocument_reference
DocumentReference
p146
(dp147
g4
F22.58517974882736
sg5
g145
sg6
I9
sbsS'1064'
p148
(idocument_reference
DocumentReference
p149
(dp150
g4
F18.125211798162933
sg5
g148
sg6
I6
sbsS'1067'
p151
(idocument_reference
DocumentReference
p152
(dp153
g4
F29.27687723663997
sg5
g151
sg6
I7
sbsS'1066'
p154
(idocument_reference
DocumentReference
p155
(dp156
g4
F18.893850629983994
sg5
g154
sg6
I4
sbsS'427'
p157
(idocument_reference
DocumentReference
p158
(dp159
g4
F15.467543775690665
sg5
g157
sg6
I6
sbsS'298'
p160
(idocument_reference
DocumentReference
p161
(dp162
g4
F23.195547752927073
sg5
g160
sg6
I7
sbsS'299'
p163
(idocument_reference
DocumentReference
p164
(dp165
g4
F14.650483478495776
sg5
g163
sg6
I3
sbsS'296'
p166
(idocument_reference
DocumentReference
p167
(dp168
g4
F22.609660243967987
sg5
g166
sg6
I9
sbsS'297'
p169
(idocument_reference
DocumentReference
p170
(dp171
g4
F19.65105342172837
sg5
g169
sg6
I6
sbsS'294'
p172
(idocument_reference
DocumentReference
p173
(dp174
g4
F19.881237941872744
sg5
g172
sg6
I5
sbsS'426'
p175
(idocument_reference
DocumentReference
p176
(dp177
g4
F22.67251051958343
sg5
g175
sg6
I6
sbsS'292'
p178
(idocument_reference
DocumentReference
p179
(dp180
g4
F18.12820105794636
sg5
g178
sg6
I7
sbsS'293'
p181
(idocument_reference
DocumentReference
p182
(dp183
g4
F17.384663204181685
sg5
g181
sg6
I6
sbsS'290'
p184
(idocument_reference
DocumentReference
p185
(dp186
g4
F24.237435498849585
sg5
g184
sg6
I7
sbsS'291'
p187
(idocument_reference
DocumentReference
p188
(dp189
g4
F24.539749227288443
sg5
g187
sg6
I8
sbsS'1087'
p190
(idocument_reference
DocumentReference
p191
(dp192
g4
F24.308099158480132
sg5
g190
sg6
I9
sbsS'1086'
p193
(idocument_reference
DocumentReference
p194
(dp195
g4
F30.973865070433558
sg5
g193
sg6
I6
sbsS'1085'
p196
(idocument_reference
DocumentReference
p197
(dp198
g4
F49.59182624751399
sg5
g196
sg6
I10
sbsS'1084'
p199
(idocument_reference
DocumentReference
p200
(dp201
g4
F22.633018155625955
sg5
g199
sg6
I6
sbsS'595'
p202
(idocument_reference
DocumentReference
p203
(dp204
g4
F20.98385889729805
sg5
g202
sg6
I5
sbsS'1082'
p205
(idocument_reference
DocumentReference
p206
(dp207
g4
F14.915638369682142
sg5
g205
sg6
I4
sbsS'597'
p208
(idocument_reference
DocumentReference
p209
(dp210
g4
F32.16061935427838
sg5
g208
sg6
I7
sbsS'1080'
p211
(idocument_reference
DocumentReference
p212
(dp213
g4
F8.960291468596925
sg5
g211
sg6
I5
sbsS'599'
p214
(idocument_reference
DocumentReference
p215
(dp216
g4
F22.286330957540944
sg5
g214
sg6
I6
sbsS'1121'
p217
(idocument_reference
DocumentReference
p218
(dp219
g4
F40.95799507975383
sg5
g217
sg6
I8
sbsS'197'
p220
(idocument_reference
DocumentReference
p221
(dp222
g4
F26.68822031724658
sg5
g220
sg6
I7
sbsS'196'
p223
(idocument_reference
DocumentReference
p224
(dp225
g4
F19.40440842369095
sg5
g223
sg6
I4
sbsS'1124'
p226
(idocument_reference
DocumentReference
p227
(dp228
g4
F22.660684078433647
sg5
g226
sg6
I7
sbsS'1125'
p229
(idocument_reference
DocumentReference
p230
(dp231
g4
F29.63995965993833
sg5
g229
sg6
I6
sbsS'193'
p232
(idocument_reference
DocumentReference
p233
(dp234
g4
F33.94041709236922
sg5
g232
sg6
I7
sbsS'192'
p235
(idocument_reference
DocumentReference
p236
(dp237
g4
F39.30185382738901
sg5
g235
sg6
I10
sbsS'270'
p238
(idocument_reference
DocumentReference
p239
(dp240
g4
F27.702770294899825
sg5
g238
sg6
I5
sbsS'271'
p241
(idocument_reference
DocumentReference
p242
(dp243
g4
F23.692844821559422
sg5
g241
sg6
I7
sbsS'272'
p244
(idocument_reference
DocumentReference
p245
(dp246
g4
F24.15199094743591
sg5
g244
sg6
I5
sbsS'1138'
p247
(idocument_reference
DocumentReference
p248
(dp249
g4
F24.48588235389582
sg5
g247
sg6
I5
sbsS'274'
p250
(idocument_reference
DocumentReference
p251
(dp252
g4
F22.79451873674443
sg5
g250
sg6
I5
sbsS'275'
p253
(idocument_reference
DocumentReference
p254
(dp255
g4
F24.506395290120256
sg5
g253
sg6
I7
sbsS'276'
p256
(idocument_reference
DocumentReference
p257
(dp258
g4
F21.23450483743091
sg5
g256
sg6
I5
sbsS'277'
p259
(idocument_reference
DocumentReference
p260
(dp261
g4
F12.612677157238402
sg5
g259
sg6
I3
sbsS'278'
p262
(idocument_reference
DocumentReference
p263
(dp264
g4
F32.280829869354065
sg5
g262
sg6
I13
sbsS'279'
p265
(idocument_reference
DocumentReference
p266
(dp267
g4
F23.67920085943493
sg5
g265
sg6
I17
sbsS'230'
p268
(idocument_reference
DocumentReference
p269
(dp270
g4
F21.316744609778105
sg5
g268
sg6
I6
sbsS'738'
p271
(idocument_reference
DocumentReference
p272
(dp273
g4
F33.7775781626745
sg5
g271
sg6
I7
sbsS'569'
p274
(idocument_reference
DocumentReference
p275
(dp276
g4
F21.554440152653147
sg5
g274
sg6
I6
sbsS'497'
p277
(idocument_reference
DocumentReference
p278
(dp279
g4
F19.256614912037264
sg5
g277
sg6
I4
sbsS'910'
p280
(idocument_reference
DocumentReference
p281
(dp282
g4
F13.287356350413527
sg5
g280
sg6
I3
sbsS'581'
p283
(idocument_reference
DocumentReference
p284
(dp285
g4
F22.569493952058053
sg5
g283
sg6
I7
sbsS'524'
p286
(idocument_reference
DocumentReference
p287
(dp288
g4
F16.836152736928547
sg5
g286
sg6
I5
sbsS'525'
p289
(idocument_reference
DocumentReference
p290
(dp291
g4
F26.810461639381355
sg5
g289
sg6
I6
sbsS'526'
p292
(idocument_reference
DocumentReference
p293
(dp294
g4
F26.639732925509218
sg5
g292
sg6
I6
sbsS'527'
p295
(idocument_reference
DocumentReference
p296
(dp297
g4
F33.67199801367939
sg5
g295
sg6
I8
sbsS'1018'
p298
(idocument_reference
DocumentReference
p299
(dp300
g4
F16.245395066554085
sg5
g298
sg6
I4
sbsS'521'
p301
(idocument_reference
DocumentReference
p302
(dp303
g4
F35.95869435983848
sg5
g301
sg6
I10
sbsS'522'
p304
(idocument_reference
DocumentReference
p305
(dp306
g4
F32.4577675859531
sg5
g304
sg6
I8
sbsS'523'
p307
(idocument_reference
DocumentReference
p308
(dp309
g4
F20.250435384107732
sg5
g307
sg6
I4
sbsS'1014'
p310
(idocument_reference
DocumentReference
p311
(dp312
g4
F26.9884746844441
sg5
g310
sg6
I7
sbsS'1015'
p313
(idocument_reference
DocumentReference
p314
(dp315
g4
F12.471666910986587
sg5
g313
sg6
I3
sbsS'1016'
p316
(idocument_reference
DocumentReference
p317
(dp318
g4
F36.908302866956184
sg5
g316
sg6
I9
sbsS'1017'
p319
(idocument_reference
DocumentReference
p320
(dp321
g4
F24.16263636500507
sg5
g319
sg6
I6
sbsS'1010'
p322
(idocument_reference
DocumentReference
p323
(dp324
g4
F18.47708652963454
sg5
g322
sg6
I3
sbsS'1011'
p325
(idocument_reference
DocumentReference
p326
(dp327
g4
F20.500223394120944
sg5
g325
sg6
I5
sbsS'1012'
p328
(idocument_reference
DocumentReference
p329
(dp330
g4
F21.431283896359343
sg5
g328
sg6
I6
sbsS'1013'
p331
(idocument_reference
DocumentReference
p332
(dp333
g4
F14.662268325927249
sg5
g331
sg6
I3
sbsS'1234'
p334
(idocument_reference
DocumentReference
p335
(dp336
g4
F20.30987751848954
sg5
g334
sg6
I5
sbsS'1235'
p337
(idocument_reference
DocumentReference
p338
(dp339
g4
F31.23423564367694
sg5
g337
sg6
I7
sbsS'1236'
p340
(idocument_reference
DocumentReference
p341
(dp342
g4
F19.262046435505624
sg5
g340
sg6
I5
sbsS'448'
p343
(idocument_reference
DocumentReference
p344
(dp345
g4
F21.506489504498955
sg5
g343
sg6
I5
sbsS'1230'
p346
(idocument_reference
DocumentReference
p347
(dp348
g4
F20.317434527578225
sg5
g346
sg6
I4
sbsS'1231'
p349
(idocument_reference
DocumentReference
p350
(dp351
g4
F20.418968778235868
sg5
g349
sg6
I6
sbsS'1232'
p352
(idocument_reference
DocumentReference
p353
(dp354
g4
F15.967016935638455
sg5
g352
sg6
I7
sbsS'1233'
p355
(idocument_reference
DocumentReference
p356
(dp357
g4
F12.019072867661656
sg5
g355
sg6
I4
sbsS'443'
p358
(idocument_reference
DocumentReference
p359
(dp360
g4
F23.06632031218139
sg5
g358
sg6
I8
sbsS'442'
p361
(idocument_reference
DocumentReference
p362
(dp363
g4
F21.990646737146292
sg5
g361
sg6
I7
sbsS'441'
p364
(idocument_reference
DocumentReference
p365
(dp366
g4
F29.710372070036467
sg5
g364
sg6
I9
sbsS'440'
p367
(idocument_reference
DocumentReference
p368
(dp369
g4
F30.346387357498788
sg5
g367
sg6
I11
sbsS'1238'
p370
(idocument_reference
DocumentReference
p371
(dp372
g4
F26.4394215498815
sg5
g370
sg6
I6
sbsS'1239'
p373
(idocument_reference
DocumentReference
p374
(dp375
g4
F24.170506166230854
sg5
g373
sg6
I7
sbsS'445'
p376
(idocument_reference
DocumentReference
p377
(dp378
g4
F22.239775802137117
sg5
g376
sg6
I5
sbsS'444'
p379
(idocument_reference
DocumentReference
p380
(dp381
g4
F17.482706711128436
sg5
g379
sg6
I5
sbsS'47'
p382
(idocument_reference
DocumentReference
p383
(dp384
g4
F32.316239868413895
sg5
g382
sg6
I7
sbsS'108'
p385
(idocument_reference
DocumentReference
p386
(dp387
g4
F21.682030586349114
sg5
g385
sg6
I8
sbsS'109'
p388
(idocument_reference
DocumentReference
p389
(dp390
g4
F17.40681215120449
sg5
g388
sg6
I5
sbsS'588'
p391
(idocument_reference
DocumentReference
p392
(dp393
g4
F30.010578990762596
sg5
g391
sg6
I11
sbsS'102'
p394
(idocument_reference
DocumentReference
p395
(dp396
g4
F21.081565893592643
sg5
g394
sg6
I14
sbsS'103'
p397
(idocument_reference
DocumentReference
p398
(dp399
g4
F21.94756923351962
sg5
g397
sg6
I7
sbsS'100'
p400
(idocument_reference
DocumentReference
p401
(dp402
g4
F28.703636556862282
sg5
g400
sg6
I7
sbsS'101'
p403
(idocument_reference
DocumentReference
p404
(dp405
g4
F18.21812915324154
sg5
g403
sg6
I4
sbsS'106'
p406
(idocument_reference
DocumentReference
p407
(dp408
g4
F24.24775628441016
sg5
g406
sg6
I6
sbsS'107'
p409
(idocument_reference
DocumentReference
p410
(dp411
g4
F26.376097955111035
sg5
g409
sg6
I20
sbsS'104'
p412
(idocument_reference
DocumentReference
p413
(dp414
g4
F29.194451941669907
sg5
g412
sg6
I6
sbsS'105'
p415
(idocument_reference
DocumentReference
p416
(dp417
g4
F20.31805304371214
sg5
g415
sg6
I5
sbsS'902'
p418
(idocument_reference
DocumentReference
p419
(dp420
g4
F28.003601622911503
sg5
g418
sg6
I14
sbsS'903'
p421
(idocument_reference
DocumentReference
p422
(dp423
g4
F16.320886006212213
sg5
g421
sg6
I7
sbsS'900'
p424
(idocument_reference
DocumentReference
p425
(dp426
g4
F17.19232852489874
sg5
g424
sg6
I5
sbsS'38'
p427
(idocument_reference
DocumentReference
p428
(dp429
g4
F17.82979789744224
sg5
g427
sg6
I4
sbsS'906'
p430
(idocument_reference
DocumentReference
p431
(dp432
g4
F17.343263422064283
sg5
g430
sg6
I5
sbsS'907'
p433
(idocument_reference
DocumentReference
p434
(dp435
g4
F24.96979010186381
sg5
g433
sg6
I4
sbsS'904'
p436
(idocument_reference
DocumentReference
p437
(dp438
g4
F22.30221498977124
sg5
g436
sg6
I6
sbsS'905'
p439
(idocument_reference
DocumentReference
p440
(dp441
g4
F25.871864267985703
sg5
g439
sg6
I9
sbsS'33'
p442
(idocument_reference
DocumentReference
p443
(dp444
g4
F16.716240064969302
sg5
g442
sg6
I3
sbsS'32'
p445
(idocument_reference
DocumentReference
p446
(dp447
g4
F15.255540512230061
sg5
g445
sg6
I5
sbsS'908'
p448
(idocument_reference
DocumentReference
p449
(dp450
g4
F14.845549008136798
sg5
g448
sg6
I4
sbsS'30'
p451
(idocument_reference
DocumentReference
p452
(dp453
g4
F28.149944013695368
sg5
g451
sg6
I6
sbsS'37'
p454
(idocument_reference
DocumentReference
p455
(dp456
g4
F17.927829123886177
sg5
g454
sg6
I4
sbsS'36'
p457
(idocument_reference
DocumentReference
p458
(dp459
g4
F25.06285713229754
sg5
g457
sg6
I4
sbsS'35'
p460
(idocument_reference
DocumentReference
p461
(dp462
g4
F13.721052427690589
sg5
g460
sg6
I4
sbsS'34'
p463
(idocument_reference
DocumentReference
p464
(dp465
g4
F21.54594782257264
sg5
g463
sg6
I5
sbsS'1212'
p466
(idocument_reference
DocumentReference
p467
(dp468
g4
F16.277064291455417
sg5
g466
sg6
I6
sbsS'640'
p469
(idocument_reference
DocumentReference
p470
(dp471
g4
F25.3306047491655
sg5
g469
sg6
I7
sbsS'643'
p472
(idocument_reference
DocumentReference
p473
(dp474
g4
F32.24188754823913
sg5
g472
sg6
I15
sbsS'642'
p475
(idocument_reference
DocumentReference
p476
(dp477
g4
F17.334120681433106
sg5
g475
sg6
I5
sbsS'645'
p478
(idocument_reference
DocumentReference
p479
(dp480
g4
F21.785022353977627
sg5
g478
sg6
I7
sbsS'644'
p481
(idocument_reference
DocumentReference
p482
(dp483
g4
F22.80802257834215
sg5
g481
sg6
I6
sbsS'438'
p484
(idocument_reference
DocumentReference
p485
(dp486
g4
F22.46305393277515
sg5
g484
sg6
I8
sbsS'646'
p487
(idocument_reference
DocumentReference
p488
(dp489
g4
F25.769502922635276
sg5
g487
sg6
I5
sbsS'649'
p490
(idocument_reference
DocumentReference
p491
(dp492
g4
F16.69212011593897
sg5
g490
sg6
I4
sbsS'437'
p493
(idocument_reference
DocumentReference
p494
(dp495
g4
F20.669069042693383
sg5
g493
sg6
I9
sbsS'434'
p496
(idocument_reference
DocumentReference
p497
(dp498
g4
F20.209658682021864
sg5
g496
sg6
I8
sbsS'435'
p499
(idocument_reference
DocumentReference
p500
(dp501
g4
F24.5979632621202
sg5
g499
sg6
I7
sbsS'432'
p502
(idocument_reference
DocumentReference
p503
(dp504
g4
F24.548397685936326
sg5
g502
sg6
I7
sbsS'194'
p505
(idocument_reference
DocumentReference
p506
(dp507
g4
F38.75752954024205
sg5
g505
sg6
I11
sbsS'430'
p508
(idocument_reference
DocumentReference
p509
(dp510
g4
F22.01465428984574
sg5
g508
sg6
I4
sbsS'431'
p511
(idocument_reference
DocumentReference
p512
(dp513
g4
F26.269169408624776
sg5
g511
sg6
I4
sbsS'1002'
p514
(idocument_reference
DocumentReference
p515
(dp516
g4
F25.358384988087014
sg5
g514
sg6
I7
sbsS'339'
p517
(idocument_reference
DocumentReference
p518
(dp519
g4
F15.856628636766319
sg5
g517
sg6
I6
sbsS'338'
p520
(idocument_reference
DocumentReference
p521
(dp522
g4
F15.763890832699039
sg5
g520
sg6
I5
sbsS'335'
p523
(idocument_reference
DocumentReference
p524
(dp525
g4
F24.143180069044625
sg5
g523
sg6
I5
sbsS'334'
p526
(idocument_reference
DocumentReference
p527
(dp528
g4
F34.5085250108566
sg5
g526
sg6
I11
sbsS'337'
p529
(idocument_reference
DocumentReference
p530
(dp531
g4
F19.54621268231298
sg5
g529
sg6
I6
sbsS'336'
p532
(idocument_reference
DocumentReference
p533
(dp534
g4
F19.04875638944734
sg5
g532
sg6
I7
sbsS'331'
p535
(idocument_reference
DocumentReference
p536
(dp537
g4
F14.576235723645219
sg5
g535
sg6
I4
sbsS'330'
p538
(idocument_reference
DocumentReference
p539
(dp540
g4
F19.08980466804689
sg5
g538
sg6
I6
sbsS'333'
p541
(idocument_reference
DocumentReference
p542
(dp543
g4
F28.26588319325976
sg5
g541
sg6
I8
sbsS'332'
p544
(idocument_reference
DocumentReference
p545
(dp546
g4
F23.818199727786112
sg5
g544
sg6
I5
sbsS'1120'
p547
(idocument_reference
DocumentReference
p548
(dp549
g4
F61.15573227499414
sg5
g547
sg6
I11
sbsS'744'
p550
(idocument_reference
DocumentReference
p551
(dp552
g4
F28.293067144838158
sg5
g550
sg6
I5
sbsS'752'
p553
(idocument_reference
DocumentReference
p554
(dp555
g4
F17.20777476337907
sg5
g553
sg6
I5
sbsS'558'
p556
(idocument_reference
DocumentReference
p557
(dp558
g4
F16.946440486645358
sg5
g556
sg6
I4
sbsS'1151'
p559
(idocument_reference
DocumentReference
p560
(dp561
g4
F19.2463493550909
sg5
g559
sg6
I4
sbsS'855'
p562
(idocument_reference
DocumentReference
p563
(dp564
g4
F20.55289047204443
sg5
g562
sg6
I5
sbsS'856'
p565
(idocument_reference
DocumentReference
p566
(dp567
g4
F24.19961655852132
sg5
g565
sg6
I8
sbsS'857'
p568
(idocument_reference
DocumentReference
p569
(dp570
g4
F28.186281522125707
sg5
g568
sg6
I10
sbsS'850'
p571
(idocument_reference
DocumentReference
p572
(dp573
g4
F22.850839167245216
sg5
g571
sg6
I4
sbsS'851'
p574
(idocument_reference
DocumentReference
p575
(dp576
g4
F13.795556117988724
sg5
g574
sg6
I4
sbsS'852'
p577
(idocument_reference
DocumentReference
p578
(dp579
g4
F17.1599495900134
sg5
g577
sg6
I5
sbsS'853'
p580
(idocument_reference
DocumentReference
p581
(dp582
g4
F18.678674662230257
sg5
g580
sg6
I6
sbsS'240'
p583
(idocument_reference
DocumentReference
p584
(dp585
g4
F13.878520715951076
sg5
g583
sg6
I6
sbsS'858'
p586
(idocument_reference
DocumentReference
p587
(dp588
g4
F27.50290759984248
sg5
g586
sg6
I11
sbsS'88'
p589
(idocument_reference
DocumentReference
p590
(dp591
g4
F23.937171143429282
sg5
g589
sg6
I6
sbsS'555'
p592
(idocument_reference
DocumentReference
p593
(dp594
g4
F19.770777609339362
sg5
g592
sg6
I5
sbsS'449'
p595
(idocument_reference
DocumentReference
p596
(dp597
g4
F22.484991613072623
sg5
g595
sg6
I9
sbsS'749'
p598
(idocument_reference
DocumentReference
p599
(dp600
g4
F56.923535126861815
sg5
g598
sg6
I16
sbsS'1162'
p601
(idocument_reference
DocumentReference
p602
(dp603
g4
F21.84283212214247
sg5
g601
sg6
I5
sbsS'634'
p604
(idocument_reference
DocumentReference
p605
(dp606
g4
F20.705253851041807
sg5
g604
sg6
I4
sbsS'43'
p607
(idocument_reference
DocumentReference
p608
(dp609
g4
F25.7027982737542
sg5
g607
sg6
I5
sbsS'99'
p610
(idocument_reference
DocumentReference
p611
(dp612
g4
F19.880796590847105
sg5
g610
sg6
I6
sbsS'98'
p613
(idocument_reference
DocumentReference
p614
(dp615
g4
F30.29303913714304
sg5
g613
sg6
I7
sbsS'91'
p616
(idocument_reference
DocumentReference
p617
(dp618
g4
F19.75779416763182
sg5
g616
sg6
I6
sbsS'90'
p619
(idocument_reference
DocumentReference
p620
(dp621
g4
F20.70104525104639
sg5
g619
sg6
I5
sbsS'93'
p622
(idocument_reference
DocumentReference
p623
(dp624
g4
F28.540924406589777
sg5
g622
sg6
I7
sbsS'92'
p625
(idocument_reference
DocumentReference
p626
(dp627
g4
F21.902718234402222
sg5
g625
sg6
I5
sbsS'95'
p628
(idocument_reference
DocumentReference
p629
(dp630
g4
F22.96360282184051
sg5
g628
sg6
I7
sbsS'94'
p631
(idocument_reference
DocumentReference
p632
(dp633
g4
F14.585162789906695
sg5
g631
sg6
I5
sbsS'97'
p634
(idocument_reference
DocumentReference
p635
(dp636
g4
F23.842451832106484
sg5
g634
sg6
I6
sbsS'96'
p637
(idocument_reference
DocumentReference
p638
(dp639
g4
F14.060185760827169
sg5
g637
sg6
I4
sbsS'814'
p640
(idocument_reference
DocumentReference
p641
(dp642
g4
F15.624899581010123
sg5
g640
sg6
I7
sbsS'815'
p643
(idocument_reference
DocumentReference
p644
(dp645
g4
F25.85351315304556
sg5
g643
sg6
I6
sbsS'1023'
p646
(idocument_reference
DocumentReference
p647
(dp648
g4
F10.530592296522592
sg5
g646
sg6
I3
sbsS'740'
p649
(idocument_reference
DocumentReference
p650
(dp651
g4
F23.111160845418613
sg5
g649
sg6
I5
sbsS'741'
p652
(idocument_reference
DocumentReference
p653
(dp654
g4
F20.965491148124915
sg5
g652
sg6
I5
sbsS'742'
p655
(idocument_reference
DocumentReference
p656
(dp657
g4
F44.05379992438564
sg5
g655
sg6
I11
sbsS'743'
p658
(idocument_reference
DocumentReference
p659
(dp660
g4
F44.235255418011235
sg5
g658
sg6
I9
sbsS'559'
p661
(idocument_reference
DocumentReference
p662
(dp663
g4
F24.916841568114272
sg5
g661
sg6
I8
sbsS'745'
p664
(idocument_reference
DocumentReference
p665
(dp666
g4
F64.89667082739848
sg5
g664
sg6
I20
sbsS'746'
p667
(idocument_reference
DocumentReference
p668
(dp669
g4
F29.745011586850936
sg5
g667
sg6
I8
sbsS'747'
p670
(idocument_reference
DocumentReference
p671
(dp672
g4
F21.0977949959226
sg5
g670
sg6
I6
sbsS'748'
p673
(idocument_reference
DocumentReference
p674
(dp675
g4
F30.618189302402822
sg5
g673
sg6
I6
sbsS'554'
p676
(idocument_reference
DocumentReference
p677
(dp678
g4
F20.520616887189814
sg5
g676
sg6
I5
sbsS'557'
p679
(idocument_reference
DocumentReference
p680
(dp681
g4
F24.366839513875156
sg5
g679
sg6
I5
sbsS'556'
p682
(idocument_reference
DocumentReference
p683
(dp684
g4
F15.430038173613971
sg5
g682
sg6
I3
sbsS'551'
p685
(idocument_reference
DocumentReference
p686
(dp687
g4
F21.315922761619028
sg5
g685
sg6
I9
sbsS'550'
p688
(idocument_reference
DocumentReference
p689
(dp690
g4
F24.977694403881983
sg5
g688
sg6
I9
sbsS'553'
p691
(idocument_reference
DocumentReference
p692
(dp693
g4
F33.19550595380971
sg5
g691
sg6
I7
sbsS'552'
p694
(idocument_reference
DocumentReference
p695
(dp696
g4
F12.12463361375085
sg5
g694
sg6
I4
sbsS'409'
p697
(idocument_reference
DocumentReference
p698
(dp699
g4
F20.827032276165156
sg5
g697
sg6
I5
sbsS'238'
p700
(idocument_reference
DocumentReference
p701
(dp702
g4
F19.74540274836028
sg5
g700
sg6
I7
sbsS'239'
p703
(idocument_reference
DocumentReference
p704
(dp705
g4
F21.403700853656016
sg5
g703
sg6
I6
sbsS'234'
p706
(idocument_reference
DocumentReference
p707
(dp708
g4
F23.54755598301209
sg5
g706
sg6
I7
sbsS'235'
p709
(idocument_reference
DocumentReference
p710
(dp711
g4
F34.572295415779585
sg5
g709
sg6
I10
sbsS'236'
p712
(idocument_reference
DocumentReference
p713
(dp714
g4
F21.258012452128856
sg5
g712
sg6
I7
sbsS'237'
p715
(idocument_reference
DocumentReference
p716
(dp717
g4
F16.235763301629802
sg5
g715
sg6
I4
sbsS'152'
p718
(idocument_reference
DocumentReference
p719
(dp720
g4
F23.050137403040257
sg5
g718
sg6
I4
sbsS'231'
p721
(idocument_reference
DocumentReference
p722
(dp723
g4
F25.520855519501442
sg5
g721
sg6
I6
sbsS'232'
p724
(idocument_reference
DocumentReference
p725
(dp726
g4
F22.969639923280152
sg5
g724
sg6
I7
sbsS'233'
p727
(idocument_reference
DocumentReference
p728
(dp729
g4
F14.727564045225085
sg5
g727
sg6
I3
sbsS'1050'
p730
(idocument_reference
DocumentReference
p731
(dp732
g4
F19.96473453107159
sg5
g730
sg6
I7
sbsS'1198'
p733
(idocument_reference
DocumentReference
p734
(dp735
g4
F23.784488310575703
sg5
g733
sg6
I5
sbsS'1052'
p736
(idocument_reference
DocumentReference
p737
(dp738
g4
F16.40001862998838
sg5
g736
sg6
I4
sbsS'1053'
p739
(idocument_reference
DocumentReference
p740
(dp741
g4
F18.725396932792815
sg5
g739
sg6
I6
sbsS'1054'
p742
(idocument_reference
DocumentReference
p743
(dp744
g4
F15.800521868040073
sg5
g742
sg6
I7
sbsS'1055'
p745
(idocument_reference
DocumentReference
p746
(dp747
g4
F19.098431393876826
sg5
g745
sg6
I8
sbsS'1056'
p748
(idocument_reference
DocumentReference
p749
(dp750
g4
F20.10944561288223
sg5
g748
sg6
I5
sbsS'1057'
p751
(idocument_reference
DocumentReference
p752
(dp753
g4
F14.943336049446852
sg5
g751
sg6
I5
sbsS'1058'
p754
(idocument_reference
DocumentReference
p755
(dp756
g4
F18.15218618982719
sg5
g754
sg6
I5
sbsS'1059'
p757
(idocument_reference
DocumentReference
p758
(dp759
g4
F28.040216798783383
sg5
g757
sg6
I8
sbsS'1193'
p760
(idocument_reference
DocumentReference
p761
(dp762
g4
F36.183091280770654
sg5
g760
sg6
I7
sbsS'1192'
p763
(idocument_reference
DocumentReference
p764
(dp765
g4
F23.294157997192194
sg5
g763
sg6
I14
sbsS'1195'
p766
(idocument_reference
DocumentReference
p767
(dp768
g4
F16.391910097045596
sg5
g766
sg6
I6
sbsS'1194'
p769
(idocument_reference
DocumentReference
p770
(dp771
g4
F18.021550788079324
sg5
g769
sg6
I7
sbsS'1197'
p772
(idocument_reference
DocumentReference
p773
(dp774
g4
F52.79557274484946
sg5
g772
sg6
I16
sbsS'1196'
p775
(idocument_reference
DocumentReference
p776
(dp777
g4
F22.923621261222923
sg5
g775
sg6
I7
sbsS'1'
p778
(idocument_reference
DocumentReference
p779
(dp780
g4
F27.50229202881403
sg5
g778
sg6
I8
sbsS'792'
p781
(idocument_reference
DocumentReference
p782
(dp783
g4
F25.14180055154017
sg5
g781
sg6
I7
sbsS'614'
p784
(idocument_reference
DocumentReference
p785
(dp786
g4
F22.939025570606077
sg5
g784
sg6
I7
sbsS'155'
p787
(idocument_reference
DocumentReference
p788
(dp789
g4
F27.662489303754473
sg5
g787
sg6
I6
sbsS'1177'
p790
(idocument_reference
DocumentReference
p791
(dp792
g4
F19.67479344620278
sg5
g790
sg6
I6
sbsS'147'
p793
(idocument_reference
DocumentReference
p794
(dp795
g4
F22.155031007553276
sg5
g793
sg6
I8
sbsS'144'
p796
(idocument_reference
DocumentReference
p797
(dp798
g4
F37.24790006117083
sg5
g796
sg6
I10
sbsS'145'
p799
(idocument_reference
DocumentReference
p800
(dp801
g4
F23.247756031787205
sg5
g799
sg6
I4
sbsS'1173'
p802
(idocument_reference
DocumentReference
p803
(dp804
g4
F28.906173197595283
sg5
g802
sg6
I7
sbsS'1172'
p805
(idocument_reference
DocumentReference
p806
(dp807
g4
F33.84456737163163
sg5
g805
sg6
I8
sbsS'1171'
p808
(idocument_reference
DocumentReference
p809
(dp810
g4
F21.148345571700112
sg5
g808
sg6
I10
sbsS'1170'
p811
(idocument_reference
DocumentReference
p812
(dp813
g4
F23.363416415046313
sg5
g811
sg6
I6
sbsS'612'
p814
(idocument_reference
DocumentReference
p815
(dp816
g4
F24.81908436809273
sg5
g814
sg6
I10
sbsS'613'
p817
(idocument_reference
DocumentReference
p818
(dp819
g4
F32.1824369972226
sg5
g817
sg6
I8
sbsS'563'
p820
(idocument_reference
DocumentReference
p821
(dp822
g4
F47.321195706728574
sg5
g820
sg6
I14
sbsS'611'
p823
(idocument_reference
DocumentReference
p824
(dp825
g4
F21.887857156136242
sg5
g823
sg6
I9
sbsS'616'
p826
(idocument_reference
DocumentReference
p827
(dp828
g4
F21.287606520322534
sg5
g826
sg6
I4
sbsS'617'
p829
(idocument_reference
DocumentReference
p830
(dp831
g4
F24.035695703164347
sg5
g829
sg6
I4
sbsS'148'
p832
(idocument_reference
DocumentReference
p833
(dp834
g4
F22.744339477473233
sg5
g832
sg6
I7
sbsS'1178'
p835
(idocument_reference
DocumentReference
p836
(dp837
g4
F15.25005682887504
sg5
g835
sg6
I4
sbsS'1007'
p838
(idocument_reference
DocumentReference
p839
(dp840
g4
F16.117781157841865
sg5
g838
sg6
I5
sbsS'615'
p841
(idocument_reference
DocumentReference
p842
(dp843
g4
F21.472536771655076
sg5
g841
sg6
I8
sbsS'1006'
p844
(idocument_reference
DocumentReference
p845
(dp846
g4
F40.687015095535706
sg5
g844
sg6
I13
sbsS'154'
p847
(idocument_reference
DocumentReference
p848
(dp849
g4
F17.286463427852144
sg5
g847
sg6
I9
sbsS'513'
p850
(idocument_reference
DocumentReference
p851
(dp852
g4
F9.816779093771496
sg5
g850
sg6
I4
sbsS'512'
p853
(idocument_reference
DocumentReference
p854
(dp855
g4
F9.073825905361373
sg5
g853
sg6
I4
sbsS'948'
p856
(idocument_reference
DocumentReference
p857
(dp858
g4
F17.80031530180114
sg5
g856
sg6
I4
sbsS'949'
p859
(idocument_reference
DocumentReference
p860
(dp861
g4
F22.86690780981569
sg5
g859
sg6
I7
sbsS'946'
p862
(idocument_reference
DocumentReference
p863
(dp864
g4
F19.756187045472807
sg5
g862
sg6
I6
sbsS'515'
p865
(idocument_reference
DocumentReference
p866
(dp867
g4
F26.172747272906474
sg5
g865
sg6
I5
sbsS'944'
p868
(idocument_reference
DocumentReference
p869
(dp870
g4
F16.95239446549242
sg5
g868
sg6
I4
sbsS'945'
p871
(idocument_reference
DocumentReference
p872
(dp873
g4
F25.482538937860756
sg5
g871
sg6
I7
sbsS'942'
p874
(idocument_reference
DocumentReference
p875
(dp876
g4
F11.053738657550056
sg5
g874
sg6
I6
sbsS'943'
p877
(idocument_reference
DocumentReference
p878
(dp879
g4
F20.868122257720152
sg5
g877
sg6
I10
sbsS'404'
p880
(idocument_reference
DocumentReference
p881
(dp882
g4
F17.651973698441985
sg5
g880
sg6
I4
sbsS'941'
p883
(idocument_reference
DocumentReference
p884
(dp885
g4
F13.135616255800187
sg5
g883
sg6
I5
sbsS'1191'
p886
(idocument_reference
DocumentReference
p887
(dp888
g4
F24.11835386993405
sg5
g886
sg6
I4
sbsS'689'
p889
(idocument_reference
DocumentReference
p890
(dp891
g4
F21.49283417476769
sg5
g889
sg6
I5
sbsS'688'
p892
(idocument_reference
DocumentReference
p893
(dp894
g4
F21.811314291398332
sg5
g892
sg6
I5
sbsS'1190'
p895
(idocument_reference
DocumentReference
p896
(dp897
g4
F9.321965976638733
sg5
g895
sg6
I3
sbsS'685'
p898
(idocument_reference
DocumentReference
p899
(dp900
g4
F24.5473946631923
sg5
g898
sg6
I5
sbsS'684'
p901
(idocument_reference
DocumentReference
p902
(dp903
g4
F20.36644099836229
sg5
g901
sg6
I4
sbsS'687'
p904
(idocument_reference
DocumentReference
p905
(dp906
g4
F11.869569478890869
sg5
g904
sg6
I6
sbsS'686'
p907
(idocument_reference
DocumentReference
p908
(dp909
g4
F31.25873491434808
sg5
g907
sg6
I8
sbsS'681'
p910
(idocument_reference
DocumentReference
p911
(dp912
g4
F24.926150896353302
sg5
g910
sg6
I5
sbsS'680'
p913
(idocument_reference
DocumentReference
p914
(dp915
g4
F24.089997653486137
sg5
g913
sg6
I5
sbsS'683'
p916
(idocument_reference
DocumentReference
p917
(dp918
g4
F22.243388258323684
sg5
g916
sg6
I9
sbsS'682'
p919
(idocument_reference
DocumentReference
p920
(dp921
g4
F15.850985846107358
sg5
g919
sg6
I5
sbsS'458'
p922
(idocument_reference
DocumentReference
p923
(dp924
g4
F27.939459491117336
sg5
g922
sg6
I7
sbsS'819'
p925
(idocument_reference
DocumentReference
p926
(dp927
g4
F22.883598940081338
sg5
g925
sg6
I5
sbsS'1226'
p928
(idocument_reference
DocumentReference
p929
(dp930
g4
F16.657976558567643
sg5
g928
sg6
I6
sbsS'1225'
p931
(idocument_reference
DocumentReference
p932
(dp933
g4
F12.826490778120595
sg5
g931
sg6
I4
sbsS'133'
p934
(idocument_reference
DocumentReference
p935
(dp936
g4
F34.258435009570796
sg5
g934
sg6
I6
sbsS'132'
p937
(idocument_reference
DocumentReference
p938
(dp939
g4
F14.889527928830674
sg5
g937
sg6
I6
sbsS'131'
p940
(idocument_reference
DocumentReference
p941
(dp942
g4
F20.49195244019101
sg5
g940
sg6
I4
sbsS'1224'
p943
(idocument_reference
DocumentReference
p944
(dp945
g4
F17.79139041523133
sg5
g943
sg6
I5
sbsS'137'
p946
(idocument_reference
DocumentReference
p947
(dp948
g4
F39.68011185692369
sg5
g946
sg6
I11
sbsS'136'
p949
(idocument_reference
DocumentReference
p950
(dp951
g4
F23.014155701078746
sg5
g949
sg6
I7
sbsS'135'
p952
(idocument_reference
DocumentReference
p953
(dp954
g4
F19.8124333055599
sg5
g952
sg6
I6
sbsS'134'
p955
(idocument_reference
DocumentReference
p956
(dp957
g4
F25.259004744307607
sg5
g955
sg6
I11
sbsS'494'
p958
(idocument_reference
DocumentReference
p959
(dp960
g4
F14.289452780888569
sg5
g958
sg6
I4
sbsS'1223'
p961
(idocument_reference
DocumentReference
p962
(dp963
g4
F21.5898629208864
sg5
g961
sg6
I9
sbsS'139'
p964
(idocument_reference
DocumentReference
p965
(dp966
g4
F47.80223332106615
sg5
g964
sg6
I11
sbsS'138'
p967
(idocument_reference
DocumentReference
p968
(dp969
g4
F20.86401873352953
sg5
g967
sg6
I5
sbsS'490'
p970
(idocument_reference
DocumentReference
p971
(dp972
g4
F14.989321900347518
sg5
g970
sg6
I6
sbsS'491'
p973
(idocument_reference
DocumentReference
p974
(dp975
g4
F15.223071879494652
sg5
g973
sg6
I4
sbsS'492'
p976
(idocument_reference
DocumentReference
p977
(dp978
g4
F11.984904640126674
sg5
g976
sg6
I6
sbsS'493'
p979
(idocument_reference
DocumentReference
p980
(dp981
g4
F21.598592850264502
sg5
g979
sg6
I6
sbsS'24'
p982
(idocument_reference
DocumentReference
p983
(dp984
g4
F28.229776150033533
sg5
g982
sg6
I7
sbsS'25'
p985
(idocument_reference
DocumentReference
p986
(dp987
g4
F18.385658888501307
sg5
g985
sg6
I6
sbsS'26'
p988
(idocument_reference
DocumentReference
p989
(dp990
g4
F18.637096151847985
sg5
g988
sg6
I6
sbsS'27'
p991
(idocument_reference
DocumentReference
p992
(dp993
g4
F18.234903358364626
sg5
g991
sg6
I5
sbsS'20'
p994
(idocument_reference
DocumentReference
p995
(dp996
g4
F16.9486278780185
sg5
g994
sg6
I6
sbsS'21'
p997
(idocument_reference
DocumentReference
p998
(dp999
g4
F18.119627551468856
sg5
g997
sg6
I5
sbsS'22'
p1000
(idocument_reference
DocumentReference
p1001
(dp1002
g4
F25.17604975218992
sg5
g1000
sg6
I5
sbsS'23'
p1003
(idocument_reference
DocumentReference
p1004
(dp1005
g4
F26.647167998504052
sg5
g1003
sg6
I5
sbsS'1220'
p1006
(idocument_reference
DocumentReference
p1007
(dp1008
g4
F24.73747316237108
sg5
g1006
sg6
I6
sbsS'28'
p1009
(idocument_reference
DocumentReference
p1010
(dp1011
g4
F14.908454061605067
sg5
g1009
sg6
I4
sbsS'29'
p1012
(idocument_reference
DocumentReference
p1013
(dp1014
g4
F22.2838651137819
sg5
g1012
sg6
I5
sbsS'130'
p1015
(idocument_reference
DocumentReference
p1016
(dp1017
g4
F13.941896703029064
sg5
g1015
sg6
I4
sbsS'407'
p1018
(idocument_reference
DocumentReference
p1019
(dp1020
g4
F17.6257160053102
sg5
g1018
sg6
I7
sbsS'406'
p1021
(idocument_reference
DocumentReference
p1022
(dp1023
g4
F23.542674624473634
sg5
g1021
sg6
I5
sbsS'405'
p1024
(idocument_reference
DocumentReference
p1025
(dp1026
g4
F29.027117031993665
sg5
g1024
sg6
I6
sbsS'938'
p1027
(idocument_reference
DocumentReference
p1028
(dp1029
g4
F14.021862714373365
sg5
g1027
sg6
I4
sbsS'403'
p1030
(idocument_reference
DocumentReference
p1031
(dp1032
g4
F16.937085573026227
sg5
g1030
sg6
I5
sbsS'402'
p1033
(idocument_reference
DocumentReference
p1034
(dp1035
g4
F12.236751824225028
sg5
g1033
sg6
I4
sbsS'401'
p1036
(idocument_reference
DocumentReference
p1037
(dp1038
g4
F24.26251388827952
sg5
g1036
sg6
I5
sbsS'400'
p1039
(idocument_reference
DocumentReference
p1040
(dp1041
g4
F26.62883254891787
sg5
g1039
sg6
I7
sbsS'933'
p1042
(idocument_reference
DocumentReference
p1043
(dp1044
g4
F24.00879635156048
sg5
g1042
sg6
I8
sbsS'932'
p1045
(idocument_reference
DocumentReference
p1046
(dp1047
g4
F12.752316800338352
sg5
g1045
sg6
I4
sbsS'931'
p1048
(idocument_reference
DocumentReference
p1049
(dp1050
g4
F19.40295669406836
sg5
g1048
sg6
I4
sbsS'930'
p1051
(idocument_reference
DocumentReference
p1052
(dp1053
g4
F15.261021401579159
sg5
g1051
sg6
I3
sbsS'937'
p1054
(idocument_reference
DocumentReference
p1055
(dp1056
g4
F15.605110020732573
sg5
g1054
sg6
I5
sbsS'936'
p1057
(idocument_reference
DocumentReference
p1058
(dp1059
g4
F19.377411698010082
sg5
g1057
sg6
I6
sbsS'935'
p1060
(idocument_reference
DocumentReference
p1061
(dp1062
g4
F22.061937327069472
sg5
g1060
sg6
I6
sbsS'408'
p1063
(idocument_reference
DocumentReference
p1064
(dp1065
g4
F21.518846417963378
sg5
g1063
sg6
I5
sbsS'453'
p1066
(idocument_reference
DocumentReference
p1067
(dp1068
g4
F30.521283728194447
sg5
g1066
sg6
I7
sbsS'1028'
p1069
(idocument_reference
DocumentReference
p1070
(dp1071
g4
F18.703542442875083
sg5
g1069
sg6
I6
sbsS'454'
p1072
(idocument_reference
DocumentReference
p1073
(dp1074
g4
F21.090806147784505
sg5
g1072
sg6
I4
sbsS'455'
p1075
(idocument_reference
DocumentReference
p1076
(dp1077
g4
F19.459266377500803
sg5
g1075
sg6
I4
sbsS'456'
p1078
(idocument_reference
DocumentReference
p1079
(dp1080
g4
F18.72439132085389
sg5
g1078
sg6
I4
sbsS'457'
p1081
(idocument_reference
DocumentReference
p1082
(dp1083
g4
F27.130505770043914
sg5
g1081
sg6
I5
sbsS'977'
p1084
(idocument_reference
DocumentReference
p1085
(dp1086
g4
F18.053358619664056
sg5
g1084
sg6
I6
sbsS'379'
p1087
(idocument_reference
DocumentReference
p1088
(dp1089
g4
F14.960208409220554
sg5
g1087
sg6
I5
sbsS'378'
p1090
(idocument_reference
DocumentReference
p1091
(dp1092
g4
F18.103668714303964
sg5
g1090
sg6
I5
sbsS'829'
p1093
(idocument_reference
DocumentReference
p1094
(dp1095
g4
F14.377461773142453
sg5
g1093
sg6
I4
sbsS'828'
p1096
(idocument_reference
DocumentReference
p1097
(dp1098
g4
F14.899380615454596
sg5
g1096
sg6
I4
sbsS'371'
p1099
(idocument_reference
DocumentReference
p1100
(dp1101
g4
F21.691202789587383
sg5
g1099
sg6
I6
sbsS'370'
p1102
(idocument_reference
DocumentReference
p1103
(dp1104
g4
F24.65229618770592
sg5
g1102
sg6
I12
sbsS'827'
p1105
(idocument_reference
DocumentReference
p1106
(dp1107
g4
F16.191113390287683
sg5
g1105
sg6
I5
sbsS'826'
p1108
(idocument_reference
DocumentReference
p1109
(dp1110
g4
F8.888061538598096
sg5
g1108
sg6
I3
sbsS'375'
p1111
(idocument_reference
DocumentReference
p1112
(dp1113
g4
F45.7404560416943
sg5
g1111
sg6
I14
sbsS'820'
p1114
(idocument_reference
DocumentReference
p1115
(dp1116
g4
F19.41433022161819
sg5
g1114
sg6
I6
sbsS'823'
p1117
(idocument_reference
DocumentReference
p1118
(dp1119
g4
F19.040318725011616
sg5
g1117
sg6
I5
sbsS'822'
p1120
(idocument_reference
DocumentReference
p1121
(dp1122
g4
F18.26438144641849
sg5
g1120
sg6
I4
sbsS'146'
p1123
(idocument_reference
DocumentReference
p1124
(dp1125
g4
F19.953461130621974
sg5
g1123
sg6
I3
sbsS'605'
p1126
(idocument_reference
DocumentReference
p1127
(dp1128
g4
F18.859578478634536
sg5
g1126
sg6
I6
sbsS'911'
p1129
(idocument_reference
DocumentReference
p1130
(dp1131
g4
F21.470016705450192
sg5
g1129
sg6
I4
sbsS'708'
p1132
(idocument_reference
DocumentReference
p1133
(dp1134
g4
F22.827112445193464
sg5
g1132
sg6
I4
sbsS'709'
p1135
(idocument_reference
DocumentReference
p1136
(dp1137
g4
F40.196844759930244
sg5
g1135
sg6
I11
sbsS'1176'
p1138
(idocument_reference
DocumentReference
p1139
(dp1140
g4
F14.1672877937552
sg5
g1138
sg6
I7
sbsS'704'
p1141
(idocument_reference
DocumentReference
p1142
(dp1143
g4
F17.63873051599284
sg5
g1141
sg6
I4
sbsS'705'
p1144
(idocument_reference
DocumentReference
p1145
(dp1146
g4
F15.409571552664014
sg5
g1144
sg6
I5
sbsS'706'
p1147
(idocument_reference
DocumentReference
p1148
(dp1149
g4
F25.69596585354817
sg5
g1147
sg6
I6
sbsS'707'
p1150
(idocument_reference
DocumentReference
p1151
(dp1152
g4
F23.375226000035667
sg5
g1150
sg6
I5
sbsS'700'
p1153
(idocument_reference
DocumentReference
p1154
(dp1155
g4
F14.879047711101405
sg5
g1153
sg6
I4
sbsS'1175'
p1156
(idocument_reference
DocumentReference
p1157
(dp1158
g4
F24.353297926240792
sg5
g1156
sg6
I7
sbsS'702'
p1159
(idocument_reference
DocumentReference
p1160
(dp1161
g4
F27.0184076625429
sg5
g1159
sg6
I5
sbsS'703'
p1162
(idocument_reference
DocumentReference
p1163
(dp1164
g4
F32.22554543546688
sg5
g1162
sg6
I7
sbsS'393'
p1165
(idocument_reference
DocumentReference
p1166
(dp1167
g4
F30.6694145392939
sg5
g1165
sg6
I6
sbsS'392'
p1168
(idocument_reference
DocumentReference
p1169
(dp1170
g4
F21.248631172374747
sg5
g1168
sg6
I5
sbsS'391'
p1171
(idocument_reference
DocumentReference
p1172
(dp1173
g4
F19.966209201056508
sg5
g1171
sg6
I6
sbsS'89'
p1174
(idocument_reference
DocumentReference
p1175
(dp1176
g4
F25.762066711186883
sg5
g1174
sg6
I5
sbsS'397'
p1177
(idocument_reference
DocumentReference
p1178
(dp1179
g4
F32.52284392700523
sg5
g1177
sg6
I9
sbsS'396'
p1180
(idocument_reference
DocumentReference
p1181
(dp1182
g4
F17.09676388063285
sg5
g1180
sg6
I3
sbsS'395'
p1183
(idocument_reference
DocumentReference
p1184
(dp1185
g4
F19.609052458627236
sg5
g1183
sg6
I4
sbsS'394'
p1186
(idocument_reference
DocumentReference
p1187
(dp1188
g4
F20.413698612077077
sg5
g1186
sg6
I7
sbsS'82'
p1189
(idocument_reference
DocumentReference
p1190
(dp1191
g4
F21.468060753367354
sg5
g1189
sg6
I6
sbsS'181'
p1192
(idocument_reference
DocumentReference
p1193
(dp1194
g4
F23.649452595152564
sg5
g1192
sg6
I5
sbsS'80'
p1195
(idocument_reference
DocumentReference
p1196
(dp1197
g4
F17.42489240618458
sg5
g1195
sg6
I6
sbsS'81'
p1198
(idocument_reference
DocumentReference
p1199
(dp1200
g4
F24.84980872425921
sg5
g1198
sg6
I8
sbsS'86'
p1201
(idocument_reference
DocumentReference
p1202
(dp1203
g4
F37.01524033679138
sg5
g1201
sg6
I6
sbsS'87'
p1204
(idocument_reference
DocumentReference
p1205
(dp1206
g4
F18.635987738303637
sg5
g1204
sg6
I4
sbsS'84'
p1207
(idocument_reference
DocumentReference
p1208
(dp1209
g4
F15.003396011149777
sg5
g1207
sg6
I4
sbsS'85'
p1210
(idocument_reference
DocumentReference
p1211
(dp1212
g4
F21.957375107782454
sg5
g1210
sg6
I5
sbsS'604'
p1213
(idocument_reference
DocumentReference
p1214
(dp1215
g4
F26.919477571347155
sg5
g1213
sg6
I10
sbsS'414'
p1216
(idocument_reference
DocumentReference
p1217
(dp1218
g4
F36.71177157185392
sg5
g1216
sg6
I16
sbsS'795'
p1219
(idocument_reference
DocumentReference
p1220
(dp1221
g4
F28.441679954038545
sg5
g1219
sg6
I8
sbsS'794'
p1222
(idocument_reference
DocumentReference
p1223
(dp1224
g4
F34.910752106249134
sg5
g1222
sg6
I9
sbsS'793'
p1225
(idocument_reference
DocumentReference
p1226
(dp1227
g4
F14.727678131684728
sg5
g1225
sg6
I5
sbsS'140'
p1228
(idocument_reference
DocumentReference
p1229
(dp1230
g4
F35.086646040751035
sg5
g1228
sg6
I10
sbsS'791'
p1231
(idocument_reference
DocumentReference
p1232
(dp1233
g4
F25.52927581548503
sg5
g1231
sg6
I17
sbsS'415'
p1234
(idocument_reference
DocumentReference
p1235
(dp1236
g4
F28.26083902450023
sg5
g1234
sg6
I9
sbsS'141'
p1237
(idocument_reference
DocumentReference
p1238
(dp1239
g4
F34.24757103783374
sg5
g1237
sg6
I8
sbsS'799'
p1240
(idocument_reference
DocumentReference
p1241
(dp1242
g4
F10.866183398544223
sg5
g1240
sg6
I3
sbsS'798'
p1243
(idocument_reference
DocumentReference
p1244
(dp1245
g4
F27.64641394719995
sg5
g1243
sg6
I7
sbsS'177'
p1246
(idocument_reference
DocumentReference
p1247
(dp1248
g4
F22.883873809313606
sg5
g1246
sg6
I9
sbsS'7'
p1249
(idocument_reference
DocumentReference
p1250
(dp1251
g4
F35.29309473786435
sg5
g1249
sg6
I10
sbsS'170'
p1252
(idocument_reference
DocumentReference
p1253
(dp1254
g4
F12.557638510916675
sg5
g1252
sg6
I4
sbsS'610'
p1255
(idocument_reference
DocumentReference
p1256
(dp1257
g4
F23.212089795083344
sg5
g1255
sg6
I7
sbsS'607'
p1258
(idocument_reference
DocumentReference
p1259
(dp1260
g4
F25.22023041897006
sg5
g1258
sg6
I9
sbsS'586'
p1261
(idocument_reference
DocumentReference
p1262
(dp1263
g4
F18.107935818855086
sg5
g1261
sg6
I7
sbsS'587'
p1264
(idocument_reference
DocumentReference
p1265
(dp1266
g4
F26.923310872172273
sg5
g1264
sg6
I5
sbsS'584'
p1267
(idocument_reference
DocumentReference
p1268
(dp1269
g4
F19.617376350274235
sg5
g1267
sg6
I6
sbsS'585'
p1270
(idocument_reference
DocumentReference
p1271
(dp1272
g4
F33.65539162644807
sg5
g1270
sg6
I8
sbsS'582'
p1273
(idocument_reference
DocumentReference
p1274
(dp1275
g4
F22.700779234071614
sg5
g1273
sg6
I8
sbsS'583'
p1276
(idocument_reference
DocumentReference
p1277
(dp1278
g4
F16.372342949829
sg5
g1276
sg6
I4
sbsS'580'
p1279
(idocument_reference
DocumentReference
p1280
(dp1281
g4
F14.152353639758328
sg5
g1279
sg6
I7
sbsS'976'
p1282
(idocument_reference
DocumentReference
p1283
(dp1284
g4
F29.085694835236254
sg5
g1282
sg6
I7
sbsS'1133'
p1285
(idocument_reference
DocumentReference
p1286
(dp1287
g4
F12.400151246693664
sg5
g1285
sg6
I5
sbsS'1132'
p1288
(idocument_reference
DocumentReference
p1289
(dp1290
g4
F23.807270215754226
sg5
g1288
sg6
I4
sbsS'1131'
p1291
(idocument_reference
DocumentReference
p1292
(dp1293
g4
F18.786140240717234
sg5
g1291
sg6
I6
sbsS'1130'
p1294
(idocument_reference
DocumentReference
p1295
(dp1296
g4
F28.889901019263245
sg5
g1294
sg6
I8
sbsS'1137'
p1297
(idocument_reference
DocumentReference
p1298
(dp1299
g4
F12.562014720152266
sg5
g1297
sg6
I3
sbsS'1136'
p1300
(idocument_reference
DocumentReference
p1301
(dp1302
g4
F22.99292037421303
sg5
g1300
sg6
I5
sbsS'1135'
p1303
(idocument_reference
DocumentReference
p1304
(dp1305
g4
F20.402116987912844
sg5
g1303
sg6
I6
sbsS'1134'
p1306
(idocument_reference
DocumentReference
p1307
(dp1308
g4
F15.556693550775517
sg5
g1306
sg6
I5
sbsS'245'
p1309
(idocument_reference
DocumentReference
p1310
(dp1311
g4
F26.013377409115144
sg5
g1309
sg6
I7
sbsS'244'
p1312
(idocument_reference
DocumentReference
p1313
(dp1314
g4
F50.51548875995461
sg5
g1312
sg6
I23
sbsS'247'
p1315
(idocument_reference
DocumentReference
p1316
(dp1317
g4
F22.64365794929695
sg5
g1315
sg6
I9
sbsS'246'
p1318
(idocument_reference
DocumentReference
p1319
(dp1320
g4
F27.87864267591965
sg5
g1318
sg6
I7
sbsS'241'
p1321
(idocument_reference
DocumentReference
p1322
(dp1323
g4
F22.292584953523104
sg5
g1321
sg6
I5
sbsS'1179'
p1324
(idocument_reference
DocumentReference
p1325
(dp1326
g4
F14.83648276302472
sg5
g1324
sg6
I4
sbsS'243'
p1327
(idocument_reference
DocumentReference
p1328
(dp1329
g4
F27.190393664651502
sg5
g1327
sg6
I9
sbsS'242'
p1330
(idocument_reference
DocumentReference
p1331
(dp1332
g4
F27.377593520647956
sg5
g1330
sg6
I10
sbsS'149'
p1333
(idocument_reference
DocumentReference
p1334
(dp1335
g4
F29.429536392463433
sg5
g1333
sg6
I13
sbsS'249'
p1336
(idocument_reference
DocumentReference
p1337
(dp1338
g4
F14.55184169122347
sg5
g1336
sg6
I4
sbsS'248'
p1339
(idocument_reference
DocumentReference
p1340
(dp1341
g4
F31.185361168724853
sg5
g1339
sg6
I6
sbsS'972'
p1342
(idocument_reference
DocumentReference
p1343
(dp1344
g4
F19.34222923663357
sg5
g1342
sg6
I5
sbsS'1213'
p1345
(idocument_reference
DocumentReference
p1346
(dp1347
g4
F19.746180290720975
sg5
g1345
sg6
I5
sbsS'295'
p1348
(idocument_reference
DocumentReference
p1349
(dp1350
g4
F42.72573342796803
sg5
g1348
sg6
I10
sbsS'818'
p1351
(idocument_reference
DocumentReference
p1352
(dp1353
g4
F22.407724139241
sg5
g1351
sg6
I8
sbsS'924'
p1354
(idocument_reference
DocumentReference
p1355
(dp1356
g4
F23.87456640967746
sg5
g1354
sg6
I9
sbsS'970'
p1357
(idocument_reference
DocumentReference
p1358
(dp1359
g4
F24.863687697625313
sg5
g1357
sg6
I8
sbsS'498'
p1360
(idocument_reference
DocumentReference
p1361
(dp1362
g4
F20.337311482583925
sg5
g1360
sg6
I8
sbsS'925'
p1363
(idocument_reference
DocumentReference
p1364
(dp1365
g4
F32.93864501719166
sg5
g1363
sg6
I10
sbsS'519'
p1366
(idocument_reference
DocumentReference
p1367
(dp1368
g4
F27.777126469060565
sg5
g1366
sg6
I5
sbsS'518'
p1369
(idocument_reference
DocumentReference
p1370
(dp1371
g4
F26.303339185611907
sg5
g1369
sg6
I10
sbsS'1009'
p1372
(idocument_reference
DocumentReference
p1373
(dp1374
g4
F19.988230196685567
sg5
g1372
sg6
I5
sbsS'1008'
p1375
(idocument_reference
DocumentReference
p1376
(dp1377
g4
F17.39443589970108
sg5
g1375
sg6
I6
sbsS'511'
p1378
(idocument_reference
DocumentReference
p1379
(dp1380
g4
F25.943266643386785
sg5
g1378
sg6
I7
sbsS'510'
p1381
(idocument_reference
DocumentReference
p1382
(dp1383
g4
F15.891672716858618
sg5
g1381
sg6
I8
sbsS'1005'
p1384
(idocument_reference
DocumentReference
p1385
(dp1386
g4
F27.762614218623472
sg5
g1384
sg6
I9
sbsS'1004'
p1387
(idocument_reference
DocumentReference
p1388
(dp1389
g4
F24.70582939872377
sg5
g1387
sg6
I8
sbsS'1003'
p1390
(idocument_reference
DocumentReference
p1391
(dp1392
g4
F45.317418508941664
sg5
g1390
sg6
I10
sbsS'514'
p1393
(idocument_reference
DocumentReference
p1394
(dp1395
g4
F16.85321182323646
sg5
g1393
sg6
I6
sbsS'1001'
p1396
(idocument_reference
DocumentReference
p1397
(dp1398
g4
F17.78968334647306
sg5
g1396
sg6
I5
sbsS'1000'
p1399
(idocument_reference
DocumentReference
p1400
(dp1401
g4
F31.592082760420336
sg5
g1399
sg6
I9
sbsS'1227'
p1402
(idocument_reference
DocumentReference
p1403
(dp1404
g4
F25.629716984939392
sg5
g1402
sg6
I6
sbsS'459'
p1405
(idocument_reference
DocumentReference
p1406
(dp1407
g4
F18.439870607832063
sg5
g1405
sg6
I6
sbsS'621'
p1408
(idocument_reference
DocumentReference
p1409
(dp1410
g4
F22.32648448195921
sg5
g1408
sg6
I5
sbsS'620'
p1411
(idocument_reference
DocumentReference
p1412
(dp1413
g4
F11.463485976597958
sg5
g1411
sg6
I3
sbsS'627'
p1414
(idocument_reference
DocumentReference
p1415
(dp1416
g4
F18.49160673037974
sg5
g1414
sg6
I4
sbsS'626'
p1417
(idocument_reference
DocumentReference
p1418
(dp1419
g4
F15.184737390302622
sg5
g1417
sg6
I4
sbsS'625'
p1420
(idocument_reference
DocumentReference
p1421
(dp1422
g4
F28.324547246796904
sg5
g1420
sg6
I7
sbsS'590'
p1423
(idocument_reference
DocumentReference
p1424
(dp1425
g4
F18.810659170449753
sg5
g1423
sg6
I7
sbsS'450'
p1426
(idocument_reference
DocumentReference
p1427
(dp1428
g4
F22.800671928113015
sg5
g1426
sg6
I3
sbsS'451'
p1429
(idocument_reference
DocumentReference
p1430
(dp1431
g4
F27.286153695764742
sg5
g1429
sg6
I9
sbsS'629'
p1432
(idocument_reference
DocumentReference
p1433
(dp1434
g4
F26.500251209291285
sg5
g1432
sg6
I5
sbsS'628'
p1435
(idocument_reference
DocumentReference
p1436
(dp1437
g4
F21.481059149449813
sg5
g1435
sg6
I4
sbsS'499'
p1438
(idocument_reference
DocumentReference
p1439
(dp1440
g4
F15.94076851316935
sg5
g1438
sg6
I4
sbsS'593'
p1441
(idocument_reference
DocumentReference
p1442
(dp1443
g4
F18.541854102994424
sg5
g1441
sg6
I5
sbsS'1229'
p1444
(idocument_reference
DocumentReference
p1445
(dp1446
g4
F21.957226804825254
sg5
g1444
sg6
I6
sbsS'1228'
p1447
(idocument_reference
DocumentReference
p1448
(dp1449
g4
F23.626538086302034
sg5
g1447
sg6
I6
sbsS'592'
p1450
(idocument_reference
DocumentReference
p1451
(dp1452
g4
F18.976748494807005
sg5
g1450
sg6
I4
sbsS'179'
p1453
(idocument_reference
DocumentReference
p1454
(dp1455
g4
F29.630289105455784
sg5
g1453
sg6
I6
sbsS'178'
p1456
(idocument_reference
DocumentReference
p1457
(dp1458
g4
F35.42400155753725
sg5
g1456
sg6
I8
sbsS'1139'
p1459
(idocument_reference
DocumentReference
p1460
(dp1461
g4
F39.4480936198085
sg5
g1459
sg6
I13
sbsS'176'
p1462
(idocument_reference
DocumentReference
p1463
(dp1464
g4
F23.820016501346146
sg5
g1462
sg6
I4
sbsS'175'
p1465
(idocument_reference
DocumentReference
p1466
(dp1467
g4
F20.66590096037354
sg5
g1465
sg6
I7
sbsS'174'
p1468
(idocument_reference
DocumentReference
p1469
(dp1470
g4
F21.990273950632563
sg5
g1468
sg6
I9
sbsS'173'
p1471
(idocument_reference
DocumentReference
p1472
(dp1473
g4
F24.496352908266896
sg5
g1471
sg6
I8
sbsS'172'
p1474
(idocument_reference
DocumentReference
p1475
(dp1476
g4
F24.893486419323448
sg5
g1474
sg6
I4
sbsS'171'
p1477
(idocument_reference
DocumentReference
p1478
(dp1479
g4
F24.33752453429705
sg5
g1477
sg6
I8
sbsS'198'
p1480
(idocument_reference
DocumentReference
p1481
(dp1482
g4
F21.772937127789692
sg5
g1480
sg6
I6
sbsS'203'
p1483
(idocument_reference
DocumentReference
p1484
(dp1485
g4
F31.167690108351618
sg5
g1483
sg6
I10
sbsS'182'
p1486
(idocument_reference
DocumentReference
p1487
(dp1488
g4
F21.000441923912796
sg5
g1486
sg6
I6
sbsS'975'
p1489
(idocument_reference
DocumentReference
p1490
(dp1491
g4
F19.5891365359837
sg5
g1489
sg6
I6
sbsS'974'
p1492
(idocument_reference
DocumentReference
p1493
(dp1494
g4
F12.640197448397114
sg5
g1492
sg6
I3
sbsS'973'
p1495
(idocument_reference
DocumentReference
p1496
(dp1497
g4
F31.867774607184547
sg5
g1495
sg6
I7
sbsS'1081'
p1498
(idocument_reference
DocumentReference
p1499
(dp1500
g4
F20.144873926355622
sg5
g1498
sg6
I4
sbsS'971'
p1501
(idocument_reference
DocumentReference
p1502
(dp1503
g4
F24.216483025484585
sg5
g1501
sg6
I7
sbsS'183'
p1504
(idocument_reference
DocumentReference
p1505
(dp1506
g4
F23.435315356148735
sg5
g1504
sg6
I6
sbsS'596'
p1507
(idocument_reference
DocumentReference
p1508
(dp1509
g4
F27.62851703228936
sg5
g1507
sg6
I5
sbsS'654'
p1510
(idocument_reference
DocumentReference
p1511
(dp1512
g4
F21.810719106725426
sg5
g1510
sg6
I6
sbsS'979'
p1513
(idocument_reference
DocumentReference
p1514
(dp1515
g4
F22.37122197468393
sg5
g1513
sg6
I7
sbsS'978'
p1516
(idocument_reference
DocumentReference
p1517
(dp1518
g4
F28.10662983960854
sg5
g1516
sg6
I8
sbsS'656'
p1519
(idocument_reference
DocumentReference
p1520
(dp1521
g4
F13.654815402389318
sg5
g1519
sg6
I7
sbsS'657'
p1522
(idocument_reference
DocumentReference
p1523
(dp1524
g4
F28.989651458994434
sg5
g1522
sg6
I7
sbsS'180'
p1525
(idocument_reference
DocumentReference
p1526
(dp1527
g4
F27.753235182080598
sg5
g1525
sg6
I5
sbsS'2'
p1528
(idocument_reference
DocumentReference
p1529
(dp1530
g4
F23.524038062712368
sg5
g1528
sg6
I7
sbsS'652'
p1531
(idocument_reference
DocumentReference
p1532
(dp1533
g4
F26.377304355405446
sg5
g1531
sg6
I9
sbsS'187'
p1534
(idocument_reference
DocumentReference
p1535
(dp1536
g4
F24.35525159605724
sg5
g1534
sg6
I7
sbsS'184'
p1537
(idocument_reference
DocumentReference
p1538
(dp1539
g4
F15.34547117916523
sg5
g1537
sg6
I4
sbsS'185'
p1540
(idocument_reference
DocumentReference
p1541
(dp1542
g4
F24.344160457598
sg5
g1540
sg6
I5
sbsS'186'
p1543
(idocument_reference
DocumentReference
p1544
(dp1545
g4
F16.862047578128863
sg5
g1543
sg6
I4
sbsS'188'
p1546
(idocument_reference
DocumentReference
p1547
(dp1548
g4
F29.030322628957144
sg5
g1546
sg6
I8
sbsS'189'
p1549
(idocument_reference
DocumentReference
p1550
(dp1551
g4
F17.26030894544214
sg5
g1549
sg6
I4
sbsS'1122'
p1552
(idocument_reference
DocumentReference
p1553
(dp1554
g4
F17.446354168298672
sg5
g1552
sg6
I5
sbsS'658'
p1555
(idocument_reference
DocumentReference
p1556
(dp1557
g4
F24.071409120307628
sg5
g1555
sg6
I7
sbsS'516'
p1558
(idocument_reference
DocumentReference
p1559
(dp1560
g4
F25.47208698540194
sg5
g1558
sg6
I5
sbsS'1123'
p1561
(idocument_reference
DocumentReference
p1562
(dp1563
g4
F15.873681076805793
sg5
g1561
sg6
I4
sbsS'650'
p1564
(idocument_reference
DocumentReference
p1565
(dp1566
g4
F23.938359054538935
sg5
g1564
sg6
I6
sbsS'191'
p1567
(idocument_reference
DocumentReference
p1568
(dp1569
g4
F17.099609250091582
sg5
g1567
sg6
I7
sbsS'651'
p1570
(idocument_reference
DocumentReference
p1571
(dp1572
g4
F17.51585099845349
sg5
g1570
sg6
I4
sbsS'190'
p1573
(idocument_reference
DocumentReference
p1574
(dp1575
g4
F20.09068703712481
sg5
g1573
sg6
I4
sbsS'602'
p1576
(idocument_reference
DocumentReference
p1577
(dp1578
g4
F22.181033491269794
sg5
g1576
sg6
I5
sbsS'1089'
p1579
(idocument_reference
DocumentReference
p1580
(dp1581
g4
F24.422264315357733
sg5
g1579
sg6
I5
sbsS'764'
p1582
(idocument_reference
DocumentReference
p1583
(dp1584
g4
F9.656061565895854
sg5
g1582
sg6
I4
sbsS'1088'
p1585
(idocument_reference
DocumentReference
p1586
(dp1587
g4
F38.34487305417642
sg5
g1585
sg6
I12
sbsS'11'
p1588
(idocument_reference
DocumentReference
p1589
(dp1590
g4
F22.20498622302796
sg5
g1588
sg6
I5
sbsS'868'
p1591
(idocument_reference
DocumentReference
p1592
(dp1593
g4
F44.49485838229188
sg5
g1591
sg6
I17
sbsS'13'
p1594
(idocument_reference
DocumentReference
p1595
(dp1596
g4
F19.127900957854987
sg5
g1594
sg6
I5
sbsS'12'
p1597
(idocument_reference
DocumentReference
p1598
(dp1599
g4
F17.520622736809273
sg5
g1597
sg6
I3
sbsS'15'
p1600
(idocument_reference
DocumentReference
p1601
(dp1602
g4
F24.952324844891383
sg5
g1600
sg6
I5
sbsS'14'
p1603
(idocument_reference
DocumentReference
p1604
(dp1605
g4
F40.0498128751453
sg5
g1603
sg6
I13
sbsS'17'
p1606
(idocument_reference
DocumentReference
p1607
(dp1608
g4
F18.301330207140378
sg5
g1606
sg6
I8
sbsS'16'
p1609
(idocument_reference
DocumentReference
p1610
(dp1611
g4
F26.175706901130404
sg5
g1609
sg6
I7
sbsS'19'
p1612
(idocument_reference
DocumentReference
p1613
(dp1614
g4
F30.457046494595374
sg5
g1612
sg6
I11
sbsS'18'
p1615
(idocument_reference
DocumentReference
p1616
(dp1617
g4
F31.08566216739171
sg5
g1615
sg6
I7
sbsS'863'
p1618
(idocument_reference
DocumentReference
p1619
(dp1620
g4
F20.825569582290946
sg5
g1618
sg6
I8
sbsS'862'
p1621
(idocument_reference
DocumentReference
p1622
(dp1623
g4
F24.2591861879248
sg5
g1621
sg6
I7
sbsS'1091'
p1624
(idocument_reference
DocumentReference
p1625
(dp1626
g4
F25.395237347835916
sg5
g1624
sg6
I7
sbsS'864'
p1627
(idocument_reference
DocumentReference
p1628
(dp1629
g4
F22.490291281933505
sg5
g1627
sg6
I7
sbsS'867'
p1630
(idocument_reference
DocumentReference
p1631
(dp1632
g4
F27.39482151654434
sg5
g1630
sg6
I5
sbsS'866'
p1633
(idocument_reference
DocumentReference
p1634
(dp1635
g4
F29.332111969317562
sg5
g1633
sg6
I8
sbsS'1149'
p1636
(idocument_reference
DocumentReference
p1637
(dp1638
g4
F33.19128480401583
sg5
g1636
sg6
I7
sbsS'273'
p1639
(idocument_reference
DocumentReference
p1640
(dp1641
g4
F16.885867455212132
sg5
g1639
sg6
I5
sbsS'947'
p1642
(idocument_reference
DocumentReference
p1643
(dp1644
g4
F27.678826331286547
sg5
g1642
sg6
I6
sbsS'659'
p1645
(idocument_reference
DocumentReference
p1646
(dp1647
g4
F20.16084145410092
sg5
g1645
sg6
I5
sbsS'44'
p1648
(idocument_reference
DocumentReference
p1649
(dp1650
g4
F16.706172645433814
sg5
g1648
sg6
I5
sbsS'883'
p1651
(idocument_reference
DocumentReference
p1652
(dp1653
g4
F11.869609186071344
sg5
g1651
sg6
I4
sbsS'568'
p1654
(idocument_reference
DocumentReference
p1655
(dp1656
g4
F18.942295456540265
sg5
g1654
sg6
I6
sbsS'881'
p1657
(idocument_reference
DocumentReference
p1658
(dp1659
g4
F15.827178957457983
sg5
g1657
sg6
I4
sbsS'880'
p1660
(idocument_reference
DocumentReference
p1661
(dp1662
g4
F21.539615719210072
sg5
g1660
sg6
I6
sbsS'887'
p1663
(idocument_reference
DocumentReference
p1664
(dp1665
g4
F22.87778584030548
sg5
g1663
sg6
I4
sbsS'886'
p1666
(idocument_reference
DocumentReference
p1667
(dp1668
g4
F29.51132054553412
sg5
g1666
sg6
I7
sbsS'885'
p1669
(idocument_reference
DocumentReference
p1670
(dp1671
g4
F28.884177057807612
sg5
g1669
sg6
I6
sbsS'884'
p1672
(idocument_reference
DocumentReference
p1673
(dp1674
g4
F24.12269373718284
sg5
g1672
sg6
I7
sbsS'889'
p1675
(idocument_reference
DocumentReference
p1676
(dp1677
g4
F12.337625710001056
sg5
g1675
sg6
I5
sbsS'888'
p1678
(idocument_reference
DocumentReference
p1679
(dp1680
g4
F14.42680862144603
sg5
g1678
sg6
I6
sbsS'594'
p1681
(idocument_reference
DocumentReference
p1682
(dp1683
g4
F17.376298001123832
sg5
g1681
sg6
I5
sbsS'1032'
p1684
(idocument_reference
DocumentReference
p1685
(dp1686
g4
F21.215901966009653
sg5
g1684
sg6
I4
sbsS'940'
p1687
(idocument_reference
DocumentReference
p1688
(dp1689
g4
F11.74979059562457
sg5
g1687
sg6
I3
sbsS'355'
p1690
(idocument_reference
DocumentReference
p1691
(dp1692
g4
F26.56025984865028
sg5
g1690
sg6
I6
sbsS'322'
p1693
(idocument_reference
DocumentReference
p1694
(dp1695
g4
F28.397666342744582
sg5
g1693
sg6
I15
sbsS'323'
p1696
(idocument_reference
DocumentReference
p1697
(dp1698
g4
F19.101769539194162
sg5
g1696
sg6
I4
sbsS'320'
p1699
(idocument_reference
DocumentReference
p1700
(dp1701
g4
F28.284737646217568
sg5
g1699
sg6
I7
sbsS'321'
p1702
(idocument_reference
DocumentReference
p1703
(dp1704
g4
F18.715044291838602
sg5
g1702
sg6
I4
sbsS'326'
p1705
(idocument_reference
DocumentReference
p1706
(dp1707
g4
F23.50435788946324
sg5
g1705
sg6
I7
sbsS'327'
p1708
(idocument_reference
DocumentReference
p1709
(dp1710
g4
F17.74873161389661
sg5
g1708
sg6
I4
sbsS'324'
p1711
(idocument_reference
DocumentReference
p1712
(dp1713
g4
F24.50593135196696
sg5
g1711
sg6
I9
sbsS'325'
p1714
(idocument_reference
DocumentReference
p1715
(dp1716
g4
F21.219832095108004
sg5
g1714
sg6
I6
sbsS'328'
p1717
(idocument_reference
DocumentReference
p1718
(dp1719
g4
F15.978917525356723
sg5
g1717
sg6
I8
sbsS'329'
p1720
(idocument_reference
DocumentReference
p1721
(dp1722
g4
F15.132239917591093
sg5
g1720
sg6
I2
sbsS'759'
p1723
(idocument_reference
DocumentReference
p1724
(dp1725
g4
F18.005027435465426
sg5
g1723
sg6
I4
sbsS'201'
p1726
(idocument_reference
DocumentReference
p1727
(dp1728
g4
F37.50211648383478
sg5
g1726
sg6
I9
sbsS'774'
p1729
(idocument_reference
DocumentReference
p1730
(dp1731
g4
F20.21665036512837
sg5
g1729
sg6
I5
sbsS'777'
p1732
(idocument_reference
DocumentReference
p1733
(dp1734
g4
F18.20849808359572
sg5
g1732
sg6
I7
sbsS'776'
p1735
(idocument_reference
DocumentReference
p1736
(dp1737
g4
F21.596630012265702
sg5
g1735
sg6
I5
sbsS'205'
p1738
(idocument_reference
DocumentReference
p1739
(dp1740
g4
F35.467350202771364
sg5
g1738
sg6
I15
sbsS'770'
p1741
(idocument_reference
DocumentReference
p1742
(dp1743
g4
F18.079050208295655
sg5
g1741
sg6
I5
sbsS'207'
p1744
(idocument_reference
DocumentReference
p1745
(dp1746
g4
F15.47820682718809
sg5
g1744
sg6
I5
sbsS'772'
p1747
(idocument_reference
DocumentReference
p1748
(dp1749
g4
F13.52454074879773
sg5
g1747
sg6
I2
sbsS'209'
p1750
(idocument_reference
DocumentReference
p1751
(dp1752
g4
F19.76083127765077
sg5
g1750
sg6
I6
sbsS'208'
p1753
(idocument_reference
DocumentReference
p1754
(dp1755
g4
F22.91048049780598
sg5
g1753
sg6
I6
sbsS'39'
p1756
(idocument_reference
DocumentReference
p1757
(dp1758
g4
F18.096249702350132
sg5
g1756
sg6
I4
sbsS'779'
p1759
(idocument_reference
DocumentReference
p1760
(dp1761
g4
F37.550313375748814
sg5
g1759
sg6
I10
sbsS'778'
p1762
(idocument_reference
DocumentReference
p1763
(dp1764
g4
F30.54380841118884
sg5
g1762
sg6
I10
sbsS'77'
p1765
(idocument_reference
DocumentReference
p1766
(dp1767
g4
F31.441016898044047
sg5
g1765
sg6
I8
sbsS'76'
p1768
(idocument_reference
DocumentReference
p1769
(dp1770
g4
F21.516925847525357
sg5
g1768
sg6
I7
sbsS'75'
p1771
(idocument_reference
DocumentReference
p1772
(dp1773
g4
F36.8964879053742
sg5
g1771
sg6
I9
sbsS'74'
p1774
(idocument_reference
DocumentReference
p1775
(dp1776
g4
F15.703214549540633
sg5
g1774
sg6
I4
sbsS'73'
p1777
(idocument_reference
DocumentReference
p1778
(dp1779
g4
F47.57852651807392
sg5
g1777
sg6
I8
sbsS'72'
p1780
(idocument_reference
DocumentReference
p1781
(dp1782
g4
F18.601285159447617
sg5
g1780
sg6
I6
sbsS'71'
p1783
(idocument_reference
DocumentReference
p1784
(dp1785
g4
F40.26383982622931
sg5
g1783
sg6
I11
sbsS'70'
p1786
(idocument_reference
DocumentReference
p1787
(dp1788
g4
F25.563276556199423
sg5
g1786
sg6
I5
sbsS'655'
p1789
(idocument_reference
DocumentReference
p1790
(dp1791
g4
F36.65628078463721
sg5
g1789
sg6
I11
sbsS'893'
p1792
(idocument_reference
DocumentReference
p1793
(dp1794
g4
F15.079424166979923
sg5
g1792
sg6
I4
sbsS'79'
p1795
(idocument_reference
DocumentReference
p1796
(dp1797
g4
F25.16779340066345
sg5
g1795
sg6
I6
sbsS'78'
p1798
(idocument_reference
DocumentReference
p1799
(dp1800
g4
F23.685796660491462
sg5
g1798
sg6
I5
sbsS'1043'
p1801
(idocument_reference
DocumentReference
p1802
(dp1803
g4
F27.750665014196933
sg5
g1801
sg6
I8
sbsS'1042'
p1804
(idocument_reference
DocumentReference
p1805
(dp1806
g4
F36.290986346806044
sg5
g1804
sg6
I10
sbsS'1041'
p1807
(idocument_reference
DocumentReference
p1808
(dp1809
g4
F30.619261526288987
sg5
g1807
sg6
I7
sbsS'1040'
p1810
(idocument_reference
DocumentReference
p1811
(dp1812
g4
F13.847220985311276
sg5
g1810
sg6
I3
sbsS'1047'
p1813
(idocument_reference
DocumentReference
p1814
(dp1815
g4
F39.509644920878806
sg5
g1813
sg6
I6
sbsS'1046'
p1816
(idocument_reference
DocumentReference
p1817
(dp1818
g4
F28.342129326222548
sg5
g1816
sg6
I6
sbsS'1045'
p1819
(idocument_reference
DocumentReference
p1820
(dp1821
g4
F34.58665218435569
sg5
g1819
sg6
I5
sbsS'1044'
p1822
(idocument_reference
DocumentReference
p1823
(dp1824
g4
F28.878310589359657
sg5
g1822
sg6
I10
sbsS'1049'
p1825
(idocument_reference
DocumentReference
p1826
(dp1827
g4
F30.14429373407485
sg5
g1825
sg6
I7
sbsS'1048'
p1828
(idocument_reference
DocumentReference
p1829
(dp1830
g4
F26.623134249764455
sg5
g1828
sg6
I6
sbsS'1098'
p1831
(idocument_reference
DocumentReference
p1832
(dp1833
g4
F21.16744073492444
sg5
g1831
sg6
I2
sbsS'1222'
p1834
(idocument_reference
DocumentReference
p1835
(dp1836
g4
F30.90074771815553
sg5
g1834
sg6
I7
sbsS'805'
p1837
(idocument_reference
DocumentReference
p1838
(dp1839
g4
F29.59999519073901
sg5
g1837
sg6
I10
sbsS'358'
p1840
(idocument_reference
DocumentReference
p1841
(dp1842
g4
F32.5215668975606
sg5
g1840
sg6
I9
sbsS'1142'
p1843
(idocument_reference
DocumentReference
p1844
(dp1845
g4
F20.427650934563236
sg5
g1843
sg6
I4
sbsS'1143'
p1846
(idocument_reference
DocumentReference
p1847
(dp1848
g4
F28.109472960841472
sg5
g1846
sg6
I7
sbsS'1140'
p1849
(idocument_reference
DocumentReference
p1850
(dp1851
g4
F27.504434789935594
sg5
g1849
sg6
I6
sbsS'1141'
p1852
(idocument_reference
DocumentReference
p1853
(dp1854
g4
F13.926650548462186
sg5
g1852
sg6
I5
sbsS'1146'
p1855
(idocument_reference
DocumentReference
p1856
(dp1857
g4
F26.17959270774471
sg5
g1855
sg6
I6
sbsS'1147'
p1858
(idocument_reference
DocumentReference
p1859
(dp1860
g4
F15.496747463656444
sg5
g1858
sg6
I6
sbsS'669'
p1861
(idocument_reference
DocumentReference
p1862
(dp1863
g4
F36.05132381545428
sg5
g1861
sg6
I6
sbsS'1145'
p1864
(idocument_reference
DocumentReference
p1865
(dp1866
g4
F18.433898979461016
sg5
g1864
sg6
I3
sbsS'667'
p1867
(idocument_reference
DocumentReference
p1868
(dp1869
g4
F48.626661967407436
sg5
g1867
sg6
I15
sbsS'666'
p1870
(idocument_reference
DocumentReference
p1871
(dp1872
g4
F21.805750653138507
sg5
g1870
sg6
I11
sbsS'1148'
p1873
(idocument_reference
DocumentReference
p1874
(dp1875
g4
F19.98802789587598
sg5
g1873
sg6
I5
sbsS'228'
p1876
(idocument_reference
DocumentReference
p1877
(dp1878
g4
F22.933411647624983
sg5
g1876
sg6
I7
sbsS'663'
p1879
(idocument_reference
DocumentReference
p1880
(dp1881
g4
F16.291369646094076
sg5
g1879
sg6
I8
sbsS'768'
p1882
(idocument_reference
DocumentReference
p1883
(dp1884
g4
F22.07156614327654
sg5
g1882
sg6
I6
sbsS'661'
p1885
(idocument_reference
DocumentReference
p1886
(dp1887
g4
F23.92904814362749
sg5
g1885
sg6
I8
sbsS'660'
p1888
(idocument_reference
DocumentReference
p1889
(dp1890
g4
F55.988377318726904
sg5
g1888
sg6
I14
sbsS'1221'
p1891
(idocument_reference
DocumentReference
p1892
(dp1893
g4
F25.261631894105268
sg5
g1891
sg6
I6
sbsS'769'
p1894
(idocument_reference
DocumentReference
p1895
(dp1896
g4
F29.20230412682488
sg5
g1894
sg6
I9
sbsS'653'
p1897
(idocument_reference
DocumentReference
p1898
(dp1899
g4
F27.51251914913757
sg5
g1897
sg6
I5
sbsS'692'
p1900
(idocument_reference
DocumentReference
p1901
(dp1902
g4
F12.148550579330701
sg5
g1900
sg6
I4
sbsS'693'
p1903
(idocument_reference
DocumentReference
p1904
(dp1905
g4
F20.64036700402235
sg5
g1903
sg6
I3
sbsS'690'
p1906
(idocument_reference
DocumentReference
p1907
(dp1908
g4
F20.98489735569204
sg5
g1906
sg6
I6
sbsS'691'
p1909
(idocument_reference
DocumentReference
p1910
(dp1911
g4
F18.63535764643105
sg5
g1909
sg6
I4
sbsS'696'
p1912
(idocument_reference
DocumentReference
p1913
(dp1914
g4
F25.809153677200204
sg5
g1912
sg6
I7
sbsS'697'
p1915
(idocument_reference
DocumentReference
p1916
(dp1917
g4
F16.478335122546813
sg5
g1915
sg6
I6
sbsS'694'
p1918
(idocument_reference
DocumentReference
p1919
(dp1920
g4
F29.740971758069385
sg5
g1918
sg6
I7
sbsS'695'
p1921
(idocument_reference
DocumentReference
p1922
(dp1923
g4
F22.76295439882642
sg5
g1921
sg6
I7
sbsS'698'
p1924
(idocument_reference
DocumentReference
p1925
(dp1926
g4
F16.38456729841333
sg5
g1924
sg6
I4
sbsS'699'
p1927
(idocument_reference
DocumentReference
p1928
(dp1929
g4
F16.206257813862997
sg5
g1927
sg6
I8
sbsS'42'
p1930
(idocument_reference
DocumentReference
p1931
(dp1932
g4
F15.89062493406332
sg5
g1930
sg6
I3
sbsS'951'
p1933
(idocument_reference
DocumentReference
p1934
(dp1935
g4
F27.22989076134626
sg5
g1933
sg6
I6
sbsS'543'
p1936
(idocument_reference
DocumentReference
p1937
(dp1938
g4
F30.777411005213427
sg5
g1936
sg6
I6
sbsS'540'
p1939
(idocument_reference
DocumentReference
p1940
(dp1941
g4
F15.961723390805327
sg5
g1939
sg6
I4
sbsS'541'
p1942
(idocument_reference
DocumentReference
p1943
(dp1944
g4
F29.714935196948648
sg5
g1942
sg6
I7
sbsS'546'
p1945
(idocument_reference
DocumentReference
p1946
(dp1947
g4
F22.49670083379271
sg5
g1945
sg6
I6
sbsS'547'
p1948
(idocument_reference
DocumentReference
p1949
(dp1950
g4
F20.97866137618732
sg5
g1948
sg6
I13
sbsS'544'
p1951
(idocument_reference
DocumentReference
p1952
(dp1953
g4
F17.867934012241676
sg5
g1951
sg6
I3
sbsS'545'
p1954
(idocument_reference
DocumentReference
p1955
(dp1956
g4
F32.0010953200244
sg5
g1954
sg6
I12
sbsS'8'
p1957
(idocument_reference
DocumentReference
p1958
(dp1959
g4
F46.18730165713517
sg5
g1957
sg6
I16
sbsS'548'
p1960
(idocument_reference
DocumentReference
p1961
(dp1962
g4
F21.624067150244706
sg5
g1960
sg6
I5
sbsS'549'
p1963
(idocument_reference
DocumentReference
p1964
(dp1965
g4
F19.912521405768686
sg5
g1963
sg6
I13
sbsS'1019'
p1966
(idocument_reference
DocumentReference
p1967
(dp1968
g4
F25.19197607487745
sg5
g1966
sg6
I5
sbsS'995'
p1969
(idocument_reference
DocumentReference
p1970
(dp1971
g4
F18.35627435037894
sg5
g1969
sg6
I5
sbsS'994'
p1972
(idocument_reference
DocumentReference
p1973
(dp1974
g4
F29.583391693190695
sg5
g1972
sg6
I12
sbsS'997'
p1975
(idocument_reference
DocumentReference
p1976
(dp1977
g4
F22.334489367354113
sg5
g1975
sg6
I5
sbsS'996'
p1978
(idocument_reference
DocumentReference
p1979
(dp1980
g4
F22.5478847292797
sg5
g1978
sg6
I6
sbsS'991'
p1981
(idocument_reference
DocumentReference
p1982
(dp1983
g4
F16.141087343669945
sg5
g1981
sg6
I8
sbsS'990'
p1984
(idocument_reference
DocumentReference
p1985
(dp1986
g4
F25.9956495022673
sg5
g1984
sg6
I10
sbsS'993'
p1987
(idocument_reference
DocumentReference
p1988
(dp1989
g4
F37.07684164599942
sg5
g1987
sg6
I11
sbsS'992'
p1990
(idocument_reference
DocumentReference
p1991
(dp1992
g4
F23.960327466046856
sg5
g1990
sg6
I7
sbsS'999'
p1993
(idocument_reference
DocumentReference
p1994
(dp1995
g4
F19.76421171774867
sg5
g1993
sg6
I4
sbsS'998'
p1996
(idocument_reference
DocumentReference
p1997
(dp1998
g4
F29.63724451519613
sg5
g1996
sg6
I9
sbsS'120'
p1999
(idocument_reference
DocumentReference
p2000
(dp2001
g4
F23.148292287031754
sg5
g1999
sg6
I6
sbsS'121'
p2002
(idocument_reference
DocumentReference
p2003
(dp2004
g4
F29.61352997207314
sg5
g2002
sg6
I8
sbsS'122'
p2005
(idocument_reference
DocumentReference
p2006
(dp2007
g4
F28.110117415945744
sg5
g2005
sg6
I4
sbsS'123'
p2008
(idocument_reference
DocumentReference
p2009
(dp2010
g4
F39.1325998838195
sg5
g2008
sg6
I9
sbsS'124'
p2011
(idocument_reference
DocumentReference
p2012
(dp2013
g4
F24.85466852949951
sg5
g2011
sg6
I7
sbsS'125'
p2014
(idocument_reference
DocumentReference
p2015
(dp2016
g4
F26.228682640179688
sg5
g2014
sg6
I7
sbsS'126'
p2017
(idocument_reference
DocumentReference
p2018
(dp2019
g4
F27.46144260675929
sg5
g2017
sg6
I9
sbsS'127'
p2020
(idocument_reference
DocumentReference
p2021
(dp2022
g4
F23.51596641280307
sg5
g2020
sg6
I4
sbsS'128'
p2023
(idocument_reference
DocumentReference
p2024
(dp2025
g4
F20.48191636135597
sg5
g2023
sg6
I4
sbsS'129'
p2026
(idocument_reference
DocumentReference
p2027
(dp2028
g4
F12.438125403641788
sg5
g2026
sg6
I5
sbsS'765'
p2029
(idocument_reference
DocumentReference
p2030
(dp2031
g4
F28.554406100792693
sg5
g2029
sg6
I11
sbsS'520'
p2032
(idocument_reference
DocumentReference
p2033
(dp2034
g4
F37.833427630357335
sg5
g2032
sg6
I7
sbsS'1128'
p2035
(idocument_reference
DocumentReference
p2036
(dp2037
g4
F18.7822449009137
sg5
g2035
sg6
I4
sbsS'528'
p2038
(idocument_reference
DocumentReference
p2039
(dp2040
g4
F19.066213357535382
sg5
g2038
sg6
I7
sbsS'1189'
p2041
(idocument_reference
DocumentReference
p2042
(dp2043
g4
F14.807184690825723
sg5
g2041
sg6
I4
sbsS'529'
p2044
(idocument_reference
DocumentReference
p2045
(dp2046
g4
F23.603555375600333
sg5
g2044
sg6
I5
sbsS'928'
p2047
(idocument_reference
DocumentReference
p2048
(dp2049
g4
F16.600469753249097
sg5
g2047
sg6
I5
sbsS'929'
p2050
(idocument_reference
DocumentReference
p2051
(dp2052
g4
F16.811553478829975
sg5
g2050
sg6
I3
sbsS'416'
p2053
(idocument_reference
DocumentReference
p2054
(dp2055
g4
F36.48698402409862
sg5
g2053
sg6
I13
sbsS'417'
p2056
(idocument_reference
DocumentReference
p2057
(dp2058
g4
F22.4173340226322
sg5
g2056
sg6
I6
sbsS'410'
p2059
(idocument_reference
DocumentReference
p2060
(dp2061
g4
F31.57362416734821
sg5
g2059
sg6
I9
sbsS'411'
p2062
(idocument_reference
DocumentReference
p2063
(dp2064
g4
F28.236871237603502
sg5
g2062
sg6
I9
sbsS'412'
p2065
(idocument_reference
DocumentReference
p2066
(dp2067
g4
F20.1447138511339
sg5
g2065
sg6
I5
sbsS'413'
p2068
(idocument_reference
DocumentReference
p2069
(dp2070
g4
F17.68433981939401
sg5
g2068
sg6
I5
sbsS'920'
p2071
(idocument_reference
DocumentReference
p2072
(dp2073
g4
F16.9530223012089
sg5
g2071
sg6
I6
sbsS'921'
p2074
(idocument_reference
DocumentReference
p2075
(dp2076
g4
F16.27047264365803
sg5
g2074
sg6
I4
sbsS'922'
p2077
(idocument_reference
DocumentReference
p2078
(dp2079
g4
F23.956694111761852
sg5
g2077
sg6
I5
sbsS'923'
p2080
(idocument_reference
DocumentReference
p2081
(dp2082
g4
F21.270146277548484
sg5
g2080
sg6
I5
sbsS'418'
p2083
(idocument_reference
DocumentReference
p2084
(dp2085
g4
F21.327236444619643
sg5
g2083
sg6
I5
sbsS'419'
p2086
(idocument_reference
DocumentReference
p2087
(dp2088
g4
F13.930109300613957
sg5
g2086
sg6
I6
sbsS'926'
p2089
(idocument_reference
DocumentReference
p2090
(dp2091
g4
F16.112948575272867
sg5
g2089
sg6
I4
sbsS'927'
p2092
(idocument_reference
DocumentReference
p2093
(dp2094
g4
F17.16924552341436
sg5
g2092
sg6
I5
sbsS'319'
p2095
(idocument_reference
DocumentReference
p2096
(dp2097
g4
F20.62479231147558
sg5
g2095
sg6
I7
sbsS'318'
p2098
(idocument_reference
DocumentReference
p2099
(dp2100
g4
F14.74038157822819
sg5
g2098
sg6
I5
sbsS'313'
p2101
(idocument_reference
DocumentReference
p2102
(dp2103
g4
F27.3092085210572
sg5
g2101
sg6
I8
sbsS'312'
p2104
(idocument_reference
DocumentReference
p2105
(dp2106
g4
F29.981554930509883
sg5
g2104
sg6
I6
sbsS'311'
p2107
(idocument_reference
DocumentReference
p2108
(dp2109
g4
F21.326269153531513
sg5
g2107
sg6
I5
sbsS'310'
p2110
(idocument_reference
DocumentReference
p2111
(dp2112
g4
F31.16162235544749
sg5
g2110
sg6
I14
sbsS'317'
p2113
(idocument_reference
DocumentReference
p2114
(dp2115
g4
F32.51941503452019
sg5
g2113
sg6
I10
sbsS'316'
p2116
(idocument_reference
DocumentReference
p2117
(dp2118
g4
F26.057354874418266
sg5
g2116
sg6
I5
sbsS'315'
p2119
(idocument_reference
DocumentReference
p2120
(dp2121
g4
F28.16735179092919
sg5
g2119
sg6
I5
sbsS'314'
p2122
(idocument_reference
DocumentReference
p2123
(dp2124
g4
F32.01727540561966
sg5
g2122
sg6
I9
sbsS'1237'
p2125
(idocument_reference
DocumentReference
p2126
(dp2127
g4
F23.64967721750027
sg5
g2125
sg6
I7
sbsS'861'
p2128
(idocument_reference
DocumentReference
p2129
(dp2130
g4
F18.240284167172714
sg5
g2128
sg6
I5
sbsS'495'
p2131
(idocument_reference
DocumentReference
p2132
(dp2133
g4
F26.081487173974082
sg5
g2131
sg6
I7
sbsS'1126'
p2134
(idocument_reference
DocumentReference
p2135
(dp2136
g4
F16.210603303207815
sg5
g2134
sg6
I6
sbsS'1181'
p2137
(idocument_reference
DocumentReference
p2138
(dp2139
g4
F21.17715329254701
sg5
g2137
sg6
I4
sbsS'496'
p2140
(idocument_reference
DocumentReference
p2141
(dp2142
g4
F27.665230179372497
sg5
g2140
sg6
I11
sbsS'832'
p2143
(idocument_reference
DocumentReference
p2144
(dp2145
g4
F18.64319426236085
sg5
g2143
sg6
I5
sbsS'833'
p2146
(idocument_reference
DocumentReference
p2147
(dp2148
g4
F16.20407666087093
sg5
g2146
sg6
I5
sbsS'830'
p2149
(idocument_reference
DocumentReference
p2150
(dp2151
g4
F15.078983422202683
sg5
g2149
sg6
I4
sbsS'831'
p2152
(idocument_reference
DocumentReference
p2153
(dp2154
g4
F29.364860052046104
sg5
g2152
sg6
I8
sbsS'836'
p2155
(idocument_reference
DocumentReference
p2156
(dp2157
g4
F20.11773187214863
sg5
g2155
sg6
I5
sbsS'837'
p2158
(idocument_reference
DocumentReference
p2159
(dp2160
g4
F14.604065353489672
sg5
g2158
sg6
I4
sbsS'834'
p2161
(idocument_reference
DocumentReference
p2162
(dp2163
g4
F11.170804315024514
sg5
g2161
sg6
I3
sbsS'835'
p2164
(idocument_reference
DocumentReference
p2165
(dp2166
g4
F20.49502593632342
sg5
g2164
sg6
I10
sbsS'838'
p2167
(idocument_reference
DocumentReference
p2168
(dp2169
g4
F17.57140369992689
sg5
g2167
sg6
I3
sbsS'839'
p2170
(idocument_reference
DocumentReference
p2171
(dp2172
g4
F7.557342080243183
sg5
g2170
sg6
I3
sbsS'808'
p2173
(idocument_reference
DocumentReference
p2174
(dp2175
g4
F12.961260110900787
sg5
g2173
sg6
I4
sbsS'3'
p2176
(idocument_reference
DocumentReference
p2177
(dp2178
g4
F20.57689790964727
sg5
g2176
sg6
I6
sbsS'1030'
p2179
(idocument_reference
DocumentReference
p2180
(dp2181
g4
F22.6476481290132
sg5
g2179
sg6
I8
sbsS'368'
p2182
(idocument_reference
DocumentReference
p2183
(dp2184
g4
F36.938254436217726
sg5
g2182
sg6
I8
sbsS'369'
p2185
(idocument_reference
DocumentReference
p2186
(dp2187
g4
F30.6099300828127
sg5
g2185
sg6
I7
sbsS'366'
p2188
(idocument_reference
DocumentReference
p2189
(dp2190
g4
F14.33815308354903
sg5
g2188
sg6
I4
sbsS'367'
p2191
(idocument_reference
DocumentReference
p2192
(dp2193
g4
F36.07718049741685
sg5
g2191
sg6
I8
sbsS'364'
p2194
(idocument_reference
DocumentReference
p2195
(dp2196
g4
F22.77253337250801
sg5
g2194
sg6
I6
sbsS'365'
p2197
(idocument_reference
DocumentReference
p2198
(dp2199
g4
F13.864942282237285
sg5
g2197
sg6
I4
sbsS'362'
p2200
(idocument_reference
DocumentReference
p2201
(dp2202
g4
F21.057801787481054
sg5
g2200
sg6
I5
sbsS'363'
p2203
(idocument_reference
DocumentReference
p2204
(dp2205
g4
F27.080437701105193
sg5
g2203
sg6
I5
sbsS'671'
p2206
(idocument_reference
DocumentReference
p2207
(dp2208
g4
F18.645982953191783
sg5
g2206
sg6
I5
sbsS'361'
p2209
(idocument_reference
DocumentReference
p2210
(dp2211
g4
F19.316552846499818
sg5
g2209
sg6
I5
sbsS'1168'
p2212
(idocument_reference
DocumentReference
p2213
(dp2214
g4
F16.873898178584717
sg5
g2212
sg6
I4
sbsS'10'
p2215
(idocument_reference
DocumentReference
p2216
(dp2217
g4
F12.81143217016821
sg5
g2215
sg6
I3
sbsS'952'
p2218
(idocument_reference
DocumentReference
p2219
(dp2220
g4
F16.492581682248197
sg5
g2218
sg6
I6
sbsS'447'
p2221
(idocument_reference
DocumentReference
p2222
(dp2223
g4
F27.76258380942412
sg5
g2221
sg6
I7
sbsS'882'
p2224
(idocument_reference
DocumentReference
p2225
(dp2226
g4
F12.984757181703804
sg5
g2224
sg6
I5
sbsS'446'
p2227
(idocument_reference
DocumentReference
p2228
(dp2229
g4
F23.143827317783277
sg5
g2227
sg6
I5
sbsS'380'
p2230
(idocument_reference
DocumentReference
p2231
(dp2232
g4
F20.300568648928138
sg5
g2230
sg6
I5
sbsS'381'
p2233
(idocument_reference
DocumentReference
p2234
(dp2235
g4
F14.908490492366631
sg5
g2233
sg6
I6
sbsS'382'
p2236
(idocument_reference
DocumentReference
p2237
(dp2238
g4
F18.6388659781476
sg5
g2236
sg6
I4
sbsS'383'
p2239
(idocument_reference
DocumentReference
p2240
(dp2241
g4
F23.039948098799798
sg5
g2239
sg6
I8
sbsS'384'
p2242
(idocument_reference
DocumentReference
p2243
(dp2244
g4
F17.11951794969255
sg5
g2242
sg6
I5
sbsS'385'
p2245
(idocument_reference
DocumentReference
p2246
(dp2247
g4
F19.349564412928697
sg5
g2245
sg6
I4
sbsS'386'
p2248
(idocument_reference
DocumentReference
p2249
(dp2250
g4
F18.63102682733815
sg5
g2248
sg6
I6
sbsS'387'
p2251
(idocument_reference
DocumentReference
p2252
(dp2253
g4
F23.789194153964914
sg5
g2251
sg6
I7
sbsS'388'
p2254
(idocument_reference
DocumentReference
p2255
(dp2256
g4
F14.20899592981271
sg5
g2254
sg6
I4
sbsS'389'
p2257
(idocument_reference
DocumentReference
p2258
(dp2259
g4
F17.95163151258544
sg5
g2257
sg6
I4
sbsS'784'
p2260
(idocument_reference
DocumentReference
p2261
(dp2262
g4
F22.080297390155646
sg5
g2260
sg6
I5
sbsS'785'
p2263
(idocument_reference
DocumentReference
p2264
(dp2265
g4
F24.84890906676831
sg5
g2263
sg6
I7
sbsS'786'
p2266
(idocument_reference
DocumentReference
p2267
(dp2268
g4
F25.191761648966
sg5
g2266
sg6
I7
sbsS'787'
p2269
(idocument_reference
DocumentReference
p2270
(dp2271
g4
F16.049648879092626
sg5
g2269
sg6
I4
sbsS'780'
p2272
(idocument_reference
DocumentReference
p2273
(dp2274
g4
F14.836820224495536
sg5
g2272
sg6
I5
sbsS'781'
p2275
(idocument_reference
DocumentReference
p2276
(dp2277
g4
F21.09227104227268
sg5
g2275
sg6
I5
sbsS'782'
p2278
(idocument_reference
DocumentReference
p2279
(dp2280
g4
F28.644947540933444
sg5
g2278
sg6
I9
sbsS'783'
p2281
(idocument_reference
DocumentReference
p2282
(dp2283
g4
F16.403235702094435
sg5
g2281
sg6
I4
sbsS'788'
p2284
(idocument_reference
DocumentReference
p2285
(dp2286
g4
F17.31052307340279
sg5
g2284
sg6
I5
sbsS'789'
p2287
(idocument_reference
DocumentReference
p2288
(dp2289
g4
F14.107818222449737
sg5
g2287
sg6
I3
sbsS'1174'
p2290
(idocument_reference
DocumentReference
p2291
(dp2292
g4
F14.852526898874055
sg5
g2290
sg6
I4
sbsS'860'
p2293
(idocument_reference
DocumentReference
p2294
(dp2295
g4
F27.908395575424397
sg5
g2293
sg6
I7
sbsS'114'
p2296
(idocument_reference
DocumentReference
p2297
(dp2298
g4
F25.546352506543347
sg5
g2296
sg6
I6
sbsS'564'
p2299
(idocument_reference
DocumentReference
p2300
(dp2301
g4
F29.831277482294325
sg5
g2299
sg6
I4
sbsS'6'
p2302
(idocument_reference
DocumentReference
p2303
(dp2304
g4
F30.973491129680443
sg5
g2302
sg6
I9
sbsS'579'
p2305
(idocument_reference
DocumentReference
p2306
(dp2307
g4
F23.809610329515525
sg5
g2305
sg6
I5
sbsS'578'
p2308
(idocument_reference
DocumentReference
p2309
(dp2310
g4
F32.61849531232067
sg5
g2308
sg6
I7
sbsS'468'
p2311
(idocument_reference
DocumentReference
p2312
(dp2313
g4
F22.68792853229681
sg5
g2311
sg6
I3
sbsS'1165'
p2314
(idocument_reference
DocumentReference
p2315
(dp2316
g4
F25.50890663866129
sg5
g2314
sg6
I4
sbsS'573'
p2317
(idocument_reference
DocumentReference
p2318
(dp2319
g4
F29.78468568566978
sg5
g2317
sg6
I9
sbsS'572'
p2320
(idocument_reference
DocumentReference
p2321
(dp2322
g4
F24.501803423197206
sg5
g2320
sg6
I5
sbsS'571'
p2323
(idocument_reference
DocumentReference
p2324
(dp2325
g4
F21.62635884802853
sg5
g2323
sg6
I4
sbsS'570'
p2326
(idocument_reference
DocumentReference
p2327
(dp2328
g4
F16.85641801589007
sg5
g2326
sg6
I7
sbsS'577'
p2329
(idocument_reference
DocumentReference
p2330
(dp2331
g4
F24.79170219229213
sg5
g2329
sg6
I10
sbsS'1166'
p2332
(idocument_reference
DocumentReference
p2333
(dp2334
g4
F16.045686000897607
sg5
g2332
sg6
I4
sbsS'575'
p2335
(idocument_reference
DocumentReference
p2336
(dp2337
g4
F30.429332950650224
sg5
g2335
sg6
I7
sbsS'574'
p2338
(idocument_reference
DocumentReference
p2339
(dp2340
g4
F29.139072702247894
sg5
g2338
sg6
I6
sbsS'60'
p2341
(idocument_reference
DocumentReference
p2342
(dp2343
g4
F21.734491054625284
sg5
g2341
sg6
I7
sbsS'61'
p2344
(idocument_reference
DocumentReference
p2345
(dp2346
g4
F27.704362812464378
sg5
g2344
sg6
I6
sbsS'258'
p2347
(idocument_reference
DocumentReference
p2348
(dp2349
g4
F37.31606299789895
sg5
g2347
sg6
I8
sbsS'63'
p2350
(idocument_reference
DocumentReference
p2351
(dp2352
g4
F22.650505554289477
sg5
g2350
sg6
I9
sbsS'64'
p2353
(idocument_reference
DocumentReference
p2354
(dp2355
g4
F14.113593151977566
sg5
g2353
sg6
I5
sbsS'65'
p2356
(idocument_reference
DocumentReference
p2357
(dp2358
g4
F24.552297293503138
sg5
g2356
sg6
I9
sbsS'66'
p2359
(idocument_reference
DocumentReference
p2360
(dp2361
g4
F21.241059821035623
sg5
g2359
sg6
I5
sbsS'67'
p2362
(idocument_reference
DocumentReference
p2363
(dp2364
g4
F19.9066933671267
sg5
g2362
sg6
I7
sbsS'68'
p2365
(idocument_reference
DocumentReference
p2366
(dp2367
g4
F21.476059504720265
sg5
g2365
sg6
I5
sbsS'69'
p2368
(idocument_reference
DocumentReference
p2369
(dp2370
g4
F19.10844641023731
sg5
g2368
sg6
I6
sbsS'250'
p2371
(idocument_reference
DocumentReference
p2372
(dp2373
g4
F25.01371547621514
sg5
g2371
sg6
I5
sbsS'251'
p2374
(idocument_reference
DocumentReference
p2375
(dp2376
g4
F40.44970540313818
sg5
g2374
sg6
I13
sbsS'253'
p2377
(idocument_reference
DocumentReference
p2378
(dp2379
g4
F31.543762295137018
sg5
g2377
sg6
I8
sbsS'257'
p2380
(idocument_reference
DocumentReference
p2381
(dp2382
g4
F32.30971049733409
sg5
g2380
sg6
I9
sbsS'254'
p2383
(idocument_reference
DocumentReference
p2384
(dp2385
g4
F17.050830873579194
sg5
g2383
sg6
I7
sbsS'255'
p2386
(idocument_reference
DocumentReference
p2387
(dp2388
g4
F28.174363912304884
sg5
g2386
sg6
I8
sbsS'289'
p2389
(idocument_reference
DocumentReference
p2390
(dp2391
g4
F12.675524059900436
sg5
g2389
sg6
I4
sbsS'157'
p2392
(idocument_reference
DocumentReference
p2393
(dp2394
g4
F14.55160398447385
sg5
g2392
sg6
I6
sbsS'1163'
p2395
(idocument_reference
DocumentReference
p2396
(dp2397
g4
F16.824171681336534
sg5
g2395
sg6
I4
sbsS'939'
p2398
(idocument_reference
DocumentReference
p2399
(dp2400
g4
F7.541711451875088
sg5
g2398
sg6
I2
sbsS'731'
p2401
(idocument_reference
DocumentReference
p2402
(dp2403
g4
F17.618471132146773
sg5
g2401
sg6
I3
sbsS'1205'
p2404
(idocument_reference
DocumentReference
p2405
(dp2406
g4
F26.188620683911726
sg5
g2404
sg6
I7
sbsS'1038'
p2407
(idocument_reference
DocumentReference
p2408
(dp2409
g4
F37.97501938732807
sg5
g2407
sg6
I13
sbsS'732'
p2410
(idocument_reference
DocumentReference
p2411
(dp2412
g4
F28.701076516364314
sg5
g2410
sg6
I10
sbsS'735'
p2413
(idocument_reference
DocumentReference
p2414
(dp2415
g4
F15.891559891693054
sg5
g2413
sg6
I4
sbsS'734'
p2416
(idocument_reference
DocumentReference
p2417
(dp2418
g4
F22.23842436384241
sg5
g2416
sg6
I3
sbsS'737'
p2419
(idocument_reference
DocumentReference
p2420
(dp2421
g4
F24.225966416804646
sg5
g2419
sg6
I8
sbsS'509'
p2422
(idocument_reference
DocumentReference
p2423
(dp2424
g4
F36.93004329610374
sg5
g2422
sg6
I9
sbsS'506'
p2425
(idocument_reference
DocumentReference
p2426
(dp2427
g4
F23.80160238084641
sg5
g2425
sg6
I5
sbsS'1033'
p2428
(idocument_reference
DocumentReference
p2429
(dp2430
g4
F16.19891116224118
sg5
g2428
sg6
I5
sbsS'504'
p2431
(idocument_reference
DocumentReference
p2432
(dp2433
g4
F20.823642612719585
sg5
g2431
sg6
I7
sbsS'505'
p2434
(idocument_reference
DocumentReference
p2435
(dp2436
g4
F24.808669779952336
sg5
g2434
sg6
I7
sbsS'502'
p2437
(idocument_reference
DocumentReference
p2438
(dp2439
g4
F20.499631363213524
sg5
g2437
sg6
I5
sbsS'1037'
p2440
(idocument_reference
DocumentReference
p2441
(dp2442
g4
F18.29992075892748
sg5
g2440
sg6
I5
sbsS'1034'
p2443
(idocument_reference
DocumentReference
p2444
(dp2445
g4
F30.607334673869516
sg5
g2443
sg6
I6
sbsS'1035'
p2446
(idocument_reference
DocumentReference
p2447
(dp2448
g4
F20.018584878746392
sg5
g2446
sg6
I4
sbsS'630'
p2449
(idocument_reference
DocumentReference
p2450
(dp2451
g4
F27.42370102194688
sg5
g2449
sg6
I6
sbsS'631'
p2452
(idocument_reference
DocumentReference
p2453
(dp2454
g4
F34.793005584446966
sg5
g2452
sg6
I8
sbsS'632'
p2455
(idocument_reference
DocumentReference
p2456
(dp2457
g4
F18.16594183298811
sg5
g2455
sg6
I5
sbsS'633'
p2458
(idocument_reference
DocumentReference
p2459
(dp2460
g4
F22.94977105573377
sg5
g2458
sg6
I6
sbsS'469'
p2461
(idocument_reference
DocumentReference
p2462
(dp2463
g4
F23.128472561075554
sg5
g2461
sg6
I9
sbsS'1217'
p2464
(idocument_reference
DocumentReference
p2465
(dp2466
g4
F24.955875636035486
sg5
g2464
sg6
I11
sbsS'1214'
p2467
(idocument_reference
DocumentReference
p2468
(dp2469
g4
F12.25136532632658
sg5
g2467
sg6
I4
sbsS'1215'
p2470
(idocument_reference
DocumentReference
p2471
(dp2472
g4
F20.50443309702899
sg5
g2470
sg6
I5
sbsS'465'
p2473
(idocument_reference
DocumentReference
p2474
(dp2475
g4
F22.333368483306366
sg5
g2473
sg6
I10
sbsS'639'
p2476
(idocument_reference
DocumentReference
p2477
(dp2478
g4
F19.210281490836028
sg5
g2476
sg6
I6
sbsS'467'
p2479
(idocument_reference
DocumentReference
p2480
(dp2481
g4
F24.24148650007167
sg5
g2479
sg6
I4
sbsS'1219'
p2482
(idocument_reference
DocumentReference
p2483
(dp2484
g4
F14.18407495048059
sg5
g2482
sg6
I5
sbsS'461'
p2485
(idocument_reference
DocumentReference
p2486
(dp2487
g4
F11.228773216780318
sg5
g2485
sg6
I3
sbsS'460'
p2488
(idocument_reference
DocumentReference
p2489
(dp2490
g4
F22.16216779408163
sg5
g2488
sg6
I5
sbsS'463'
p2491
(idocument_reference
DocumentReference
p2492
(dp2493
g4
F28.469339381926947
sg5
g2491
sg6
I7
sbsS'462'
p2494
(idocument_reference
DocumentReference
p2495
(dp2496
g4
F27.534527941069904
sg5
g2494
sg6
I6
sbsS'901'
p2497
(idocument_reference
DocumentReference
p2498
(dp2499
g4
F22.992339691079476
sg5
g2497
sg6
I7
sbsS'168'
p2500
(idocument_reference
DocumentReference
p2501
(dp2502
g4
F14.806704859541922
sg5
g2500
sg6
I4
sbsS'169'
p2503
(idocument_reference
DocumentReference
p2504
(dp2505
g4
F18.295717387378645
sg5
g2503
sg6
I4
sbsS'736'
p2506
(idocument_reference
DocumentReference
p2507
(dp2508
g4
F17.80812392911403
sg5
g2506
sg6
I4
sbsS'164'
p2509
(idocument_reference
DocumentReference
p2510
(dp2511
g4
F22.088723774274147
sg5
g2509
sg6
I5
sbsS'165'
p2512
(idocument_reference
DocumentReference
p2513
(dp2514
g4
F28.925535148472946
sg5
g2512
sg6
I9
sbsS'166'
p2515
(idocument_reference
DocumentReference
p2516
(dp2517
g4
F22.00676362658606
sg5
g2515
sg6
I5
sbsS'167'
p2518
(idocument_reference
DocumentReference
p2519
(dp2520
g4
F17.969203357580316
sg5
g2518
sg6
I5
sbsS'160'
p2521
(idocument_reference
DocumentReference
p2522
(dp2523
g4
F19.720830074424793
sg5
g2521
sg6
I9
sbsS'161'
p2524
(idocument_reference
DocumentReference
p2525
(dp2526
g4
F24.495237711153468
sg5
g2524
sg6
I6
sbsS'162'
p2527
(idocument_reference
DocumentReference
p2528
(dp2529
g4
F18.675516332944763
sg5
g2527
sg6
I5
sbsS'163'
p2530
(idocument_reference
DocumentReference
p2531
(dp2532
g4
F32.35650534274782
sg5
g2530
sg6
I8
sbsS'964'
p2533
(idocument_reference
DocumentReference
p2534
(dp2535
g4
F20.955431764770438
sg5
g2533
sg6
I5
sbsS'965'
p2536
(idocument_reference
DocumentReference
p2537
(dp2538
g4
F20.503649398260286
sg5
g2536
sg6
I4
sbsS'1051'
p2539
(idocument_reference
DocumentReference
p2540
(dp2541
g4
F23.747536835993856
sg5
g2539
sg6
I6
sbsS'967'
p2542
(idocument_reference
DocumentReference
p2543
(dp2544
g4
F23.835388810306604
sg5
g2542
sg6
I6
sbsS'960'
p2545
(idocument_reference
DocumentReference
p2546
(dp2547
g4
F28.89011018041387
sg5
g2545
sg6
I7
sbsS'961'
p2548
(idocument_reference
DocumentReference
p2549
(dp2550
g4
F39.0008862107688
sg5
g2548
sg6
I14
sbsS'962'
p2551
(idocument_reference
DocumentReference
p2552
(dp2553
g4
F25.729268871188683
sg5
g2551
sg6
I6
sbsS'963'
p2554
(idocument_reference
DocumentReference
p2555
(dp2556
g4
F28.626755952742805
sg5
g2554
sg6
I8
sbsS'1129'
p2557
(idocument_reference
DocumentReference
p2558
(dp2559
g4
F30.06719625134864
sg5
g2557
sg6
I7
sbsS'968'
p2560
(idocument_reference
DocumentReference
p2561
(dp2562
g4
F33.24841599915746
sg5
g2560
sg6
I8
sbsS'969'
p2563
(idocument_reference
DocumentReference
p2564
(dp2565
g4
F30.589664821391356
sg5
g2563
sg6
I11
sbsS'360'
p2566
(idocument_reference
DocumentReference
p2567
(dp2568
g4
F33.62927023298294
sg5
g2566
sg6
I12
sbsS'1106'
p2569
(idocument_reference
DocumentReference
p2570
(dp2571
g4
F20.126753080943306
sg5
g2569
sg6
I5
sbsS'1107'
p2572
(idocument_reference
DocumentReference
p2573
(dp2574
g4
F21.709867395863768
sg5
g2572
sg6
I4
sbsS'1104'
p2575
(idocument_reference
DocumentReference
p2576
(dp2577
g4
F20.33669261220329
sg5
g2575
sg6
I5
sbsS'1105'
p2578
(idocument_reference
DocumentReference
p2579
(dp2580
g4
F20.186976225637164
sg5
g2578
sg6
I7
sbsS'1102'
p2581
(idocument_reference
DocumentReference
p2582
(dp2583
g4
F16.86763814073846
sg5
g2581
sg6
I3
sbsS'1103'
p2584
(idocument_reference
DocumentReference
p2585
(dp2586
g4
F30.791798040741476
sg5
g2584
sg6
I10
sbsS'1100'
p2587
(idocument_reference
DocumentReference
p2588
(dp2589
g4
F29.581495031028524
sg5
g2587
sg6
I8
sbsS'1101'
p2590
(idocument_reference
DocumentReference
p2591
(dp2592
g4
F27.140740712929652
sg5
g2590
sg6
I7
sbsS'934'
p2593
(idocument_reference
DocumentReference
p2594
(dp2595
g4
F12.069923461145267
sg5
g2593
sg6
I7
sbsS'31'
p2596
(idocument_reference
DocumentReference
p2597
(dp2598
g4
F30.05123741511868
sg5
g2596
sg6
I8
sbsS'1108'
p2599
(idocument_reference
DocumentReference
p2600
(dp2601
g4
F25.903347245945994
sg5
g2599
sg6
I8
sbsS'1109'
p2602
(idocument_reference
DocumentReference
p2603
(dp2604
g4
F13.02726884853472
sg5
g2602
sg6
I4
sbsS'909'
p2605
(idocument_reference
DocumentReference
p2606
(dp2607
g4
F23.30027075200742
sg5
g2605
sg6
I6
sbsS'1096'
p2608
(idocument_reference
DocumentReference
p2609
(dp2610
g4
F20.789425781093744
sg5
g2608
sg6
I6
sbsS'865'
p2611
(idocument_reference
DocumentReference
p2612
(dp2613
g4
F19.66227206141348
sg5
g2611
sg6
I7
sbsS'678'
p2614
(idocument_reference
DocumentReference
p2615
(dp2616
g4
F34.06843885314384
sg5
g2614
sg6
I8
sbsS'609'
p2617
(idocument_reference
DocumentReference
p2618
(dp2619
g4
F19.1508872764654
sg5
g2617
sg6
I4
sbsS'679'
p2620
(idocument_reference
DocumentReference
p2621
(dp2622
g4
F26.76147084230245
sg5
g2620
sg6
I7
sbsS'641'
p2623
(idocument_reference
DocumentReference
p2624
(dp2625
g4
F21.435643336071713
sg5
g2623
sg6
I7
sbsS'636'
p2626
(idocument_reference
DocumentReference
p2627
(dp2628
g4
F18.238759290783186
sg5
g2626
sg6
I4
sbsS'878'
p2629
(idocument_reference
DocumentReference
p2630
(dp2631
g4
F24.854267762096832
sg5
g2629
sg6
I12
sbsS'879'
p2632
(idocument_reference
DocumentReference
p2633
(dp2634
g4
F21.342160604123382
sg5
g2632
sg6
I5
sbsS'876'
p2635
(idocument_reference
DocumentReference
p2636
(dp2637
g4
F24.137020630580825
sg5
g2635
sg6
I5
sbsS'877'
p2638
(idocument_reference
DocumentReference
p2639
(dp2640
g4
F23.362573474437184
sg5
g2638
sg6
I5
sbsS'874'
p2641
(idocument_reference
DocumentReference
p2642
(dp2643
g4
F16.458080741785775
sg5
g2641
sg6
I6
sbsS'875'
p2644
(idocument_reference
DocumentReference
p2645
(dp2646
g4
F22.29085160862449
sg5
g2644
sg6
I4
sbsS'872'
p2647
(idocument_reference
DocumentReference
p2648
(dp2649
g4
F15.953610973096572
sg5
g2647
sg6
I4
sbsS'873'
p2650
(idocument_reference
DocumentReference
p2651
(dp2652
g4
F17.902285592917064
sg5
g2650
sg6
I5
sbsS'870'
p2653
(idocument_reference
DocumentReference
p2654
(dp2655
g4
F19.28058199561296
sg5
g2653
sg6
I8
sbsS'871'
p2656
(idocument_reference
DocumentReference
p2657
(dp2658
g4
F15.26692826853999
sg5
g2656
sg6
I5
sbsS'1155'
p2659
(idocument_reference
DocumentReference
p2660
(dp2661
g4
F14.27914907111817
sg5
g2659
sg6
I4
sbsS'1154'
p2662
(idocument_reference
DocumentReference
p2663
(dp2664
g4
F20.618457761227152
sg5
g2662
sg6
I6
sbsS'9'
p2665
(idocument_reference
DocumentReference
p2666
(dp2667
g4
F19.119759229751338
sg5
g2665
sg6
I6
sbsS'1167'
p2668
(idocument_reference
DocumentReference
p2669
(dp2670
g4
F22.5313583628484
sg5
g2668
sg6
I5
sbsS'466'
p2671
(idocument_reference
DocumentReference
p2672
(dp2673
g4
F22.502527934176136
sg5
g2671
sg6
I5
sbsS'676'
p2674
(idocument_reference
DocumentReference
p2675
(dp2676
g4
F40.61722735023723
sg5
g2674
sg6
I13
sbsS'890'
p2677
(idocument_reference
DocumentReference
p2678
(dp2679
g4
F31.10098388012146
sg5
g2677
sg6
I6
sbsS'891'
p2680
(idocument_reference
DocumentReference
p2681
(dp2682
g4
F15.484494874465199
sg5
g2680
sg6
I4
sbsS'892'
p2683
(idocument_reference
DocumentReference
p2684
(dp2685
g4
F41.64374457369425
sg5
g2683
sg6
I10
sbsS'677'
p2686
(idocument_reference
DocumentReference
p2687
(dp2688
g4
F31.44450338965059
sg5
g2686
sg6
I12
sbsS'894'
p2689
(idocument_reference
DocumentReference
p2690
(dp2691
g4
F11.062918550934581
sg5
g2689
sg6
I3
sbsS'895'
p2692
(idocument_reference
DocumentReference
p2693
(dp2694
g4
F30.30557211787356
sg5
g2692
sg6
I8
sbsS'896'
p2695
(idocument_reference
DocumentReference
p2696
(dp2697
g4
F29.72794516914776
sg5
g2695
sg6
I7
sbsS'897'
p2698
(idocument_reference
DocumentReference
p2699
(dp2700
g4
F18.251304438733555
sg5
g2698
sg6
I4
sbsS'898'
p2701
(idocument_reference
DocumentReference
p2702
(dp2703
g4
F19.073732401686105
sg5
g2701
sg6
I5
sbsS'899'
p2704
(idocument_reference
DocumentReference
p2705
(dp2706
g4
F26.811625264847056
sg5
g2704
sg6
I5
sbsS'439'
p2707
(idocument_reference
DocumentReference
p2708
(dp2709
g4
F25.41658764536399
sg5
g2707
sg6
I9
sbsS'1116'
p2710
(idocument_reference
DocumentReference
p2711
(dp2712
g4
F29.115772545853645
sg5
g2710
sg6
I7
sbsS'1099'
p2713
(idocument_reference
DocumentReference
p2714
(dp2715
g4
F23.399600150425172
sg5
g2713
sg6
I4
sbsS'436'
p2716
(idocument_reference
DocumentReference
p2717
(dp2718
g4
F27.03181124436786
sg5
g2716
sg6
I5
sbsS'1199'
p2719
(idocument_reference
DocumentReference
p2720
(dp2721
g4
F37.68696157601423
sg5
g2719
sg6
I9
sbsS'1153'
p2722
(idocument_reference
DocumentReference
p2723
(dp2724
g4
F21.795131114843556
sg5
g2722
sg6
I4
sbsS'648'
p2725
(idocument_reference
DocumentReference
p2726
(dp2727
g4
F24.015145549174104
sg5
g2725
sg6
I5
sbsS'1152'
p2728
(idocument_reference
DocumentReference
p2729
(dp2730
g4
F19.75483245706462
sg5
g2728
sg6
I4
sbsS'1036'
p2731
(idocument_reference
DocumentReference
p2732
(dp2733
g4
F21.057802596975492
sg5
g2731
sg6
I6
sbsS'638'
p2734
(idocument_reference
DocumentReference
p2735
(dp2736
g4
F19.801122167562884
sg5
g2734
sg6
I4
sbsS'576'
p2737
(idocument_reference
DocumentReference
p2738
(dp2739
g4
F17.315090648849065
sg5
g2737
sg6
I6
sbsS'433'
p2740
(idocument_reference
DocumentReference
p2741
(dp2742
g4
F18.45451610391951
sg5
g2740
sg6
I6
sbsS'357'
p2743
(idocument_reference
DocumentReference
p2744
(dp2745
g4
F14.224069221378189
sg5
g2743
sg6
I4
sbsS'356'
p2746
(idocument_reference
DocumentReference
p2747
(dp2748
g4
F24.284402621955994
sg5
g2746
sg6
I8
sbsS'809'
p2749
(idocument_reference
DocumentReference
p2750
(dp2751
g4
F17.698949286142586
sg5
g2749
sg6
I5
sbsS'354'
p2752
(idocument_reference
DocumentReference
p2753
(dp2754
g4
F16.418638410809574
sg5
g2752
sg6
I5
sbsS'353'
p2755
(idocument_reference
DocumentReference
p2756
(dp2757
g4
F16.698038414686014
sg5
g2755
sg6
I2
sbsS'352'
p2758
(idocument_reference
DocumentReference
p2759
(dp2760
g4
F22.444200311501287
sg5
g2758
sg6
I8
sbsS'351'
p2761
(idocument_reference
DocumentReference
p2762
(dp2763
g4
F18.922295698079417
sg5
g2761
sg6
I5
sbsS'350'
p2764
(idocument_reference
DocumentReference
p2765
(dp2766
g4
F16.61655729131079
sg5
g2764
sg6
I6
sbsS'803'
p2767
(idocument_reference
DocumentReference
p2768
(dp2769
g4
F31.792743016832375
sg5
g2767
sg6
I13
sbsS'802'
p2770
(idocument_reference
DocumentReference
p2771
(dp2772
g4
F16.46216592679735
sg5
g2770
sg6
I6
sbsS'801'
p2773
(idocument_reference
DocumentReference
p2774
(dp2775
g4
F24.53958806779211
sg5
g2773
sg6
I4
sbsS'800'
p2776
(idocument_reference
DocumentReference
p2777
(dp2778
g4
F33.61510638468376
sg5
g2776
sg6
I9
sbsS'807'
p2779
(idocument_reference
DocumentReference
p2780
(dp2781
g4
F22.076413374531832
sg5
g2779
sg6
I4
sbsS'806'
p2782
(idocument_reference
DocumentReference
p2783
(dp2784
g4
F19.959649887289796
sg5
g2782
sg6
I5
sbsS'359'
p2785
(idocument_reference
DocumentReference
p2786
(dp2787
g4
F24.330479692650908
sg5
g2785
sg6
I5
sbsS'804'
p2788
(idocument_reference
DocumentReference
p2789
(dp2790
g4
F30.72101882739133
sg5
g2788
sg6
I11
sbsS'216'
p2791
(idocument_reference
DocumentReference
p2792
(dp2793
g4
F18.09396052221459
sg5
g2791
sg6
I5
sbsS'217'
p2794
(idocument_reference
DocumentReference
p2795
(dp2796
g4
F12.747226143445907
sg5
g2794
sg6
I4
sbsS'214'
p2797
(idocument_reference
DocumentReference
p2798
(dp2799
g4
F18.864377723458936
sg5
g2797
sg6
I5
sbsS'215'
p2800
(idocument_reference
DocumentReference
p2801
(dp2802
g4
F38.71380647032878
sg5
g2800
sg6
I7
sbsS'212'
p2803
(idocument_reference
DocumentReference
p2804
(dp2805
g4
F16.23507166813716
sg5
g2803
sg6
I4
sbsS'213'
p2806
(idocument_reference
DocumentReference
p2807
(dp2808
g4
F20.359972166450223
sg5
g2806
sg6
I4
sbsS'210'
p2809
(idocument_reference
DocumentReference
p2810
(dp2811
g4
F11.714390501019075
sg5
g2809
sg6
I5
sbsS'211'
p2812
(idocument_reference
DocumentReference
p2813
(dp2814
g4
F20.44433918635873
sg5
g2812
sg6
I5
sbsS'762'
p2815
(idocument_reference
DocumentReference
p2816
(dp2817
g4
F26.661741355230575
sg5
g2815
sg6
I5
sbsS'763'
p2818
(idocument_reference
DocumentReference
p2819
(dp2820
g4
F12.947700110961186
sg5
g2818
sg6
I6
sbsS'760'
p2821
(idocument_reference
DocumentReference
p2822
(dp2823
g4
F20.84294745471432
sg5
g2821
sg6
I6
sbsS'761'
p2824
(idocument_reference
DocumentReference
p2825
(dp2826
g4
F20.18939946191946
sg5
g2824
sg6
I9
sbsS'766'
p2827
(idocument_reference
DocumentReference
p2828
(dp2829
g4
F22.745342728161624
sg5
g2827
sg6
I8
sbsS'767'
p2830
(idocument_reference
DocumentReference
p2831
(dp2832
g4
F20.661196328546186
sg5
g2830
sg6
I7
sbsS'218'
p2833
(idocument_reference
DocumentReference
p2834
(dp2835
g4
F14.37763710018799
sg5
g2833
sg6
I4
sbsS'219'
p2836
(idocument_reference
DocumentReference
p2837
(dp2838
g4
F25.034101950147953
sg5
g2836
sg6
I8
sbsS'957'
p2839
(idocument_reference
DocumentReference
p2840
(dp2841
g4
F24.0960902612062
sg5
g2839
sg6
I6
sbsS'202'
p2842
(idocument_reference
DocumentReference
p2843
(dp2844
g4
F28.81468712874602
sg5
g2842
sg6
I7
sbsS'41'
p2845
(idocument_reference
DocumentReference
p2846
(dp2847
g4
F35.20456108690894
sg5
g2845
sg6
I14
sbsS'1078'
p2848
(idocument_reference
DocumentReference
p2849
(dp2850
g4
F22.260323641728597
sg5
g2848
sg6
I5
sbsS'1079'
p2851
(idocument_reference
DocumentReference
p2852
(dp2853
g4
F22.488994702841648
sg5
g2851
sg6
I7
sbsS'1076'
p2854
(idocument_reference
DocumentReference
p2855
(dp2856
g4
F23.188247218301782
sg5
g2854
sg6
I7
sbsS'1077'
p2857
(idocument_reference
DocumentReference
p2858
(dp2859
g4
F22.121623451870754
sg5
g2857
sg6
I7
sbsS'1074'
p2860
(idocument_reference
DocumentReference
p2861
(dp2862
g4
F23.58320975672187
sg5
g2860
sg6
I6
sbsS'1075'
p2863
(idocument_reference
DocumentReference
p2864
(dp2865
g4
F26.344927431914577
sg5
g2863
sg6
I7
sbsS'1072'
p2866
(idocument_reference
DocumentReference
p2867
(dp2868
g4
F16.514392656943098
sg5
g2866
sg6
I4
sbsS'1073'
p2869
(idocument_reference
DocumentReference
p2870
(dp2871
g4
F20.479590734047484
sg5
g2869
sg6
I4
sbsS'1070'
p2872
(idocument_reference
DocumentReference
p2873
(dp2874
g4
F25.900197455065765
sg5
g2872
sg6
I6
sbsS'1071'
p2875
(idocument_reference
DocumentReference
p2876
(dp2877
g4
F21.215371181431674
sg5
g2875
sg6
I6
sbsS'517'
p2878
(idocument_reference
DocumentReference
p2879
(dp2880
g4
F25.226009053894455
sg5
g2878
sg6
I7
sbsS'288'
p2881
(idocument_reference
DocumentReference
p2882
(dp2883
g4
F18.511063517802132
sg5
g2881
sg6
I5
sbsS'608'
p2884
(idocument_reference
DocumentReference
p2885
(dp2886
g4
F27.261412304950234
sg5
g2884
sg6
I10
sbsS'4'
p2887
(idocument_reference
DocumentReference
p2888
(dp2889
g4
F34.588597383636795
sg5
g2887
sg6
I12
sbsS'281'
p2890
(idocument_reference
DocumentReference
p2891
(dp2892
g4
F26.5610330852333
sg5
g2890
sg6
I6
sbsS'280'
p2893
(idocument_reference
DocumentReference
p2894
(dp2895
g4
F20.481238692369242
sg5
g2893
sg6
I4
sbsS'283'
p2896
(idocument_reference
DocumentReference
p2897
(dp2898
g4
F21.785171938253853
sg5
g2896
sg6
I6
sbsS'282'
p2899
(idocument_reference
DocumentReference
p2900
(dp2901
g4
F13.78812828676922
sg5
g2899
sg6
I5
sbsS'285'
p2902
(idocument_reference
DocumentReference
p2903
(dp2904
g4
F15.024458628732514
sg5
g2902
sg6
I4
sbsS'284'
p2905
(idocument_reference
DocumentReference
p2906
(dp2907
g4
F14.513565669159489
sg5
g2905
sg6
I5
sbsS'287'
p2908
(idocument_reference
DocumentReference
p2909
(dp2910
g4
F19.853781052036865
sg5
g2908
sg6
I7
sbsS'286'
p2911
(idocument_reference
DocumentReference
p2912
(dp2913
g4
F23.391348580311632
sg5
g2911
sg6
I7
sbsS'1094'
p2914
(idocument_reference
DocumentReference
p2915
(dp2916
g4
F16.40488576997338
sg5
g2914
sg6
I4
sbsS'1095'
p2917
(idocument_reference
DocumentReference
p2918
(dp2919
g4
F20.82574035482158
sg5
g2917
sg6
I3
sbsS'1083'
p2920
(idocument_reference
DocumentReference
p2921
(dp2922
g4
F28.84605821269511
sg5
g2920
sg6
I5
sbsS'1097'
p2923
(idocument_reference
DocumentReference
p2924
(dp2925
g4
F13.414322945243967
sg5
g2923
sg6
I3
sbsS'1090'
p2926
(idocument_reference
DocumentReference
p2927
(dp2928
g4
F23.36618958435208
sg5
g2926
sg6
I7
sbsS'1158'
p2929
(idocument_reference
DocumentReference
p2930
(dp2931
g4
F18.570004517045103
sg5
g2929
sg6
I3
sbsS'1092'
p2932
(idocument_reference
DocumentReference
p2933
(dp2934
g4
F35.61104097791484
sg5
g2932
sg6
I7
sbsS'1093'
p2935
(idocument_reference
DocumentReference
p2936
(dp2937
g4
F16.432809239109076
sg5
g2935
sg6
I4
sbsS'674'
p2938
(idocument_reference
DocumentReference
p2939
(dp2940
g4
F27.85303191080569
sg5
g2938
sg6
I4
sbsS'675'
p2941
(idocument_reference
DocumentReference
p2942
(dp2943
g4
F41.47322938280024
sg5
g2941
sg6
I13
sbsS'1157'
p2944
(idocument_reference
DocumentReference
p2945
(dp2946
g4
F31.25527744030416
sg5
g2944
sg6
I6
sbsS'1156'
p2947
(idocument_reference
DocumentReference
p2948
(dp2949
g4
F23.859192799550744
sg5
g2947
sg6
I5
sbsS'670'
p2950
(idocument_reference
DocumentReference
p2951
(dp2952
g4
F23.35101640727738
sg5
g2950
sg6
I6
sbsS'1150'
p2953
(idocument_reference
DocumentReference
p2954
(dp2955
g4
F24.669520175543862
sg5
g2953
sg6
I6
sbsS'672'
p2956
(idocument_reference
DocumentReference
p2957
(dp2958
g4
F20.695970215171577
sg5
g2956
sg6
I5
sbsS'673'
p2959
(idocument_reference
DocumentReference
p2960
(dp2961
g4
F34.01722332407451
sg5
g2959
sg6
I7
sbsS'263'
p2962
(idocument_reference
DocumentReference
p2963
(dp2964
g4
F32.51853454366159
sg5
g2962
sg6
I6
sbsS'262'
p2965
(idocument_reference
DocumentReference
p2966
(dp2967
g4
F9.026090714155469
sg5
g2965
sg6
I4
sbsS'261'
p2968
(idocument_reference
DocumentReference
p2969
(dp2970
g4
F23.78343337363098
sg5
g2968
sg6
I9
sbsS'260'
p2971
(idocument_reference
DocumentReference
p2972
(dp2973
g4
F36.19029958864213
sg5
g2971
sg6
I13
sbsS'267'
p2974
(idocument_reference
DocumentReference
p2975
(dp2976
g4
F32.73793661395705
sg5
g2974
sg6
I6
sbsS'266'
p2977
(idocument_reference
DocumentReference
p2978
(dp2979
g4
F23.801017964656214
sg5
g2977
sg6
I10
sbsS'265'
p2980
(idocument_reference
DocumentReference
p2981
(dp2982
g4
F25.06284041864006
sg5
g2980
sg6
I12
sbsS'264'
p2983
(idocument_reference
DocumentReference
p2984
(dp2985
g4
F14.468908060766834
sg5
g2983
sg6
I6
sbsS'1031'
p2986
(idocument_reference
DocumentReference
p2987
(dp2988
g4
F29.037287219961005
sg5
g2986
sg6
I8
sbsS'269'
p2989
(idocument_reference
DocumentReference
p2990
(dp2991
g4
F20.577166986501542
sg5
g2989
sg6
I6
sbsS'268'
p2992
(idocument_reference
DocumentReference
p2993
(dp2994
g4
F37.09431521296898
sg5
g2992
sg6
I11
sbsS'701'
p2995
(idocument_reference
DocumentReference
p2996
(dp2997
g4
F25.90437349717638
sg5
g2995
sg6
I7
sbsS'59'
p2998
(idocument_reference
DocumentReference
p2999
(dp3000
g4
F23.129973036247755
sg5
g2998
sg6
I7
sbsS'58'
p3001
(idocument_reference
DocumentReference
p3002
(dp3003
g4
F31.616072794273627
sg5
g3001
sg6
I12
sbsS'55'
p3004
(idocument_reference
DocumentReference
p3005
(dp3006
g4
F25.993218281456688
sg5
g3004
sg6
I10
sbsS'54'
p3007
(idocument_reference
DocumentReference
p3008
(dp3009
g4
F19.200616690848292
sg5
g3007
sg6
I5
sbsS'57'
p3010
(idocument_reference
DocumentReference
p3011
(dp3012
g4
F17.51116228841279
sg5
g3010
sg6
I6
sbsS'56'
p3013
(idocument_reference
DocumentReference
p3014
(dp3015
g4
F26.240014815281572
sg5
g3013
sg6
I10
sbsS'51'
p3016
(idocument_reference
DocumentReference
p3017
(dp3018
g4
F13.873503620651466
sg5
g3016
sg6
I6
sbsS'50'
p3019
(idocument_reference
DocumentReference
p3020
(dp3021
g4
F15.322311235576844
sg5
g3019
sg6
I4
sbsS'53'
p3022
(idocument_reference
DocumentReference
p3023
(dp3024
g4
F23.3674148378538
sg5
g3022
sg6
I7
sbsS'52'
p3025
(idocument_reference
DocumentReference
p3026
(dp3027
g4
F18.924897835843325
sg5
g3025
sg6
I5
sbsS'537'
p3028
(idocument_reference
DocumentReference
p3029
(dp3030
g4
F14.771635763619953
sg5
g3028
sg6
I4
sbsS'536'
p3031
(idocument_reference
DocumentReference
p3032
(dp3033
g4
F21.313996104094176
sg5
g3031
sg6
I4
sbsS'535'
p3034
(idocument_reference
DocumentReference
p3035
(dp3036
g4
F29.105835955493657
sg5
g3034
sg6
I8
sbsS'259'
p3037
(idocument_reference
DocumentReference
p3038
(dp3039
g4
F50.68258323210255
sg5
g3037
sg6
I16
sbsS'533'
p3040
(idocument_reference
DocumentReference
p3041
(dp3042
g4
F27.37422540901648
sg5
g3040
sg6
I8
sbsS'532'
p3043
(idocument_reference
DocumentReference
p3044
(dp3045
g4
F36.82306609534927
sg5
g3043
sg6
I7
sbsS'531'
p3046
(idocument_reference
DocumentReference
p3047
(dp3048
g4
F28.65363155542552
sg5
g3046
sg6
I5
sbsS'530'
p3049
(idocument_reference
DocumentReference
p3050
(dp3051
g4
F33.03679714498104
sg5
g3049
sg6
I10
sbsS'598'
p3052
(idocument_reference
DocumentReference
p3053
(dp3054
g4
F21.59404114487497
sg5
g3052
sg6
I6
sbsS'539'
p3055
(idocument_reference
DocumentReference
p3056
(dp3057
g4
F30.21648077536287
sg5
g3055
sg6
I10
sbsS'538'
p3058
(idocument_reference
DocumentReference
p3059
(dp3060
g4
F20.94973827258539
sg5
g3058
sg6
I6
sbsS'775'
p3061
(idocument_reference
DocumentReference
p3062
(dp3063
g4
F22.52287755595765
sg5
g3061
sg6
I6
sbsS'988'
p3064
(idocument_reference
DocumentReference
p3065
(dp3066
g4
F25.925841621691465
sg5
g3064
sg6
I11
sbsS'989'
p3067
(idocument_reference
DocumentReference
p3068
(dp3069
g4
F40.21287540704426
sg5
g3067
sg6
I9
sbsS'200'
p3070
(idocument_reference
DocumentReference
p3071
(dp3072
g4
F21.537313590570307
sg5
g3070
sg6
I6
sbsS'982'
p3073
(idocument_reference
DocumentReference
p3074
(dp3075
g4
F28.58376101551661
sg5
g3073
sg6
I10
sbsS'983'
p3076
(idocument_reference
DocumentReference
p3077
(dp3078
g4
F30.513161328743173
sg5
g3076
sg6
I7
sbsS'980'
p3079
(idocument_reference
DocumentReference
p3080
(dp3081
g4
F21.22790567908528
sg5
g3079
sg6
I4
sbsS'981'
p3082
(idocument_reference
DocumentReference
p3083
(dp3084
g4
F32.152392956348294
sg5
g3082
sg6
I6
sbsS'986'
p3085
(idocument_reference
DocumentReference
p3086
(dp3087
g4
F30.778114969868554
sg5
g3085
sg6
I10
sbsS'987'
p3088
(idocument_reference
DocumentReference
p3089
(dp3090
g4
F22.484985820412945
sg5
g3088
sg6
I8
sbsS'984'
p3091
(idocument_reference
DocumentReference
p3092
(dp3093
g4
F20.166614802288358
sg5
g3091
sg6
I4
sbsS'985'
p3094
(idocument_reference
DocumentReference
p3095
(dp3096
g4
F26.47249192662518
sg5
g3094
sg6
I6
sbsS'115'
p3097
(idocument_reference
DocumentReference
p3098
(dp3099
g4
F20.08976020862827
sg5
g3097
sg6
I4
sbsS'252'
p3100
(idocument_reference
DocumentReference
p3101
(dp3102
g4
F24.719826058907376
sg5
g3100
sg6
I6
sbsS'117'
p3103
(idocument_reference
DocumentReference
p3104
(dp3105
g4
F25.295515981131278
sg5
g3103
sg6
I7
sbsS'116'
p3106
(idocument_reference
DocumentReference
p3107
(dp3108
g4
F17.525580627809997
sg5
g3106
sg6
I5
sbsS'111'
p3109
(idocument_reference
DocumentReference
p3110
(dp3111
g4
F23.710971113108894
sg5
g3109
sg6
I7
sbsS'110'
p3112
(idocument_reference
DocumentReference
p3113
(dp3114
g4
F19.035234893636943
sg5
g3112
sg6
I6
sbsS'113'
p3115
(idocument_reference
DocumentReference
p3116
(dp3117
g4
F18.508868870358153
sg5
g3115
sg6
I4
sbsS'112'
p3118
(idocument_reference
DocumentReference
p3119
(dp3120
g4
F18.930079816768302
sg5
g3118
sg6
I8
sbsS'771'
p3121
(idocument_reference
DocumentReference
p3122
(dp3123
g4
F32.76822501238946
sg5
g3121
sg6
I13
sbsS'5'
p3124
(idocument_reference
DocumentReference
p3125
(dp3126
g4
F23.419813645087586
sg5
g3124
sg6
I6
sbsS'119'
p3127
(idocument_reference
DocumentReference
p3128
(dp3129
g4
F17.550393747749432
sg5
g3127
sg6
I4
sbsS'118'
p3130
(idocument_reference
DocumentReference
p3131
(dp3132
g4
F28.07326487237091
sg5
g3130
sg6
I11
sbsS'204'
p3133
(idocument_reference
DocumentReference
p3134
(dp3135
g4
F14.00218562496534
sg5
g3133
sg6
I6
sbsS'647'
p3136
(idocument_reference
DocumentReference
p3137
(dp3138
g4
F24.029961762827135
sg5
g3136
sg6
I7
sbsS'773'
p3139
(idocument_reference
DocumentReference
p3140
(dp3141
g4
F17.63061841569679
sg5
g3139
sg6
I5
sbsS'256'
p3142
(idocument_reference
DocumentReference
p3143
(dp3144
g4
F26.946571987195103
sg5
g3142
sg6
I6
sbsS'206'
p3145
(idocument_reference
DocumentReference
p3146
(dp3147
g4
F20.926579313853725
sg5
g3145
sg6
I3
sbsS'429'
p3148
(idocument_reference
DocumentReference
p3149
(dp3150
g4
F24.45591301508925
sg5
g3148
sg6
I9
sbsS'428'
p3151
(idocument_reference
DocumentReference
p3152
(dp3153
g4
F12.435233893143545
sg5
g3151
sg6
I6
sbsS'534'
p3154
(idocument_reference
DocumentReference
p3155
(dp3156
g4
F22.096903720070973
sg5
g3154
sg6
I6
sbsS'919'
p3157
(idocument_reference
DocumentReference
p3158
(dp3159
g4
F21.30683053847387
sg5
g3157
sg6
I8
sbsS'918'
p3160
(idocument_reference
DocumentReference
p3161
(dp3162
g4
F16.48678909831078
sg5
g3160
sg6
I5
sbsS'854'
p3163
(idocument_reference
DocumentReference
p3164
(dp3165
g4
F25.295532944381982
sg5
g3163
sg6
I8
sbsS'421'
p3166
(idocument_reference
DocumentReference
p3167
(dp3168
g4
F31.76253203536073
sg5
g3166
sg6
I9
sbsS'914'
p3169
(idocument_reference
DocumentReference
p3170
(dp3171
g4
F22.93725476059478
sg5
g3169
sg6
I6
sbsS'423'
p3172
(idocument_reference
DocumentReference
p3173
(dp3174
g4
F33.19975110558707
sg5
g3172
sg6
I14
sbsS'422'
p3175
(idocument_reference
DocumentReference
p3176
(dp3177
g4
F28.93265138647472
sg5
g3175
sg6
I5
sbsS'425'
p3178
(idocument_reference
DocumentReference
p3179
(dp3180
g4
F21.80520942721036
sg5
g3178
sg6
I6
sbsS'424'
p3181
(idocument_reference
DocumentReference
p3182
(dp3183
g4
F28.050318869354783
sg5
g3181
sg6
I8
sbsS'913'
p3184
(idocument_reference
DocumentReference
p3185
(dp3186
g4
F20.64445205076731
sg5
g3184
sg6
I7
sbsS'912'
p3187
(idocument_reference
DocumentReference
p3188
(dp3189
g4
F22.3455355214541
sg5
g3187
sg6
I8
sbsS'308'
p3190
(idocument_reference
DocumentReference
p3191
(dp3192
g4
F26.337333231280848
sg5
g3190
sg6
I6
sbsS'309'
p3193
(idocument_reference
DocumentReference
p3194
(dp3195
g4
F20.83274667128355
sg5
g3193
sg6
I4
sbsS'300'
p3196
(idocument_reference
DocumentReference
p3197
(dp3198
g4
F31.773122988710742
sg5
g3196
sg6
I10
sbsS'301'
p3199
(idocument_reference
DocumentReference
p3200
(dp3201
g4
F22.59664849342868
sg5
g3199
sg6
I11
sbsS'302'
p3202
(idocument_reference
DocumentReference
p3203
(dp3204
g4
F18.06947231651293
sg5
g3202
sg6
I4
sbsS'303'
p3205
(idocument_reference
DocumentReference
p3206
(dp3207
g4
F31.644575989966988
sg5
g3205
sg6
I8
sbsS'304'
p3208
(idocument_reference
DocumentReference
p3209
(dp3210
g4
F29.771516902472715
sg5
g3208
sg6
I16
sbsS'305'
p3211
(idocument_reference
DocumentReference
p3212
(dp3213
g4
F32.171403570532185
sg5
g3211
sg6
I10
sbsS'306'
p3214
(idocument_reference
DocumentReference
p3215
(dp3216
g4
F36.97473873779888
sg5
g3214
sg6
I9
sbsS'307'
p3217
(idocument_reference
DocumentReference
p3218
(dp3219
g4
F57.19171521440579
sg5
g3217
sg6
I19
sbsS'825'
p3220
(idocument_reference
DocumentReference
p3221
(dp3222
g4
F15.609156689080823
sg5
g3220
sg6
I5
sbsS'665'
p3223
(idocument_reference
DocumentReference
p3224
(dp3225
g4
F20.756671263590114
sg5
g3223
sg6
I4
sbsS'824'
p3226
(idocument_reference
DocumentReference
p3227
(dp3228
g4
F13.474546040599119
sg5
g3226
sg6
I6
sbsS'373'
p3229
(idocument_reference
DocumentReference
p3230
(dp3231
g4
F22.247415217580333
sg5
g3229
sg6
I7
sbsS'847'
p3232
(idocument_reference
DocumentReference
p3233
(dp3234
g4
F25.218469648193285
sg5
g3232
sg6
I6
sbsS'846'
p3235
(idocument_reference
DocumentReference
p3236
(dp3237
g4
F15.750976666356586
sg5
g3235
sg6
I7
sbsS'845'
p3238
(idocument_reference
DocumentReference
p3239
(dp3240
g4
F14.310277515733853
sg5
g3238
sg6
I6
sbsS'844'
p3241
(idocument_reference
DocumentReference
p3242
(dp3243
g4
F26.348210708917918
sg5
g3241
sg6
I6
sbsS'843'
p3244
(idocument_reference
DocumentReference
p3245
(dp3246
g4
F17.651880953966604
sg5
g3244
sg6
I3
sbsS'842'
p3247
(idocument_reference
DocumentReference
p3248
(dp3249
g4
F21.41799809418542
sg5
g3247
sg6
I4
sbsS'841'
p3250
(idocument_reference
DocumentReference
p3251
(dp3252
g4
F28.14771534152945
sg5
g3250
sg6
I7
sbsS'840'
p3253
(idocument_reference
DocumentReference
p3254
(dp3255
g4
F35.5222681089842
sg5
g3253
sg6
I9
sbsS'637'
p3256
(idocument_reference
DocumentReference
p3257
(dp3258
g4
F17.46231104993687
sg5
g3256
sg6
I5
sbsS'821'
p3259
(idocument_reference
DocumentReference
p3260
(dp3261
g4
F21.223791632244083
sg5
g3259
sg6
I6
sbsS'849'
p3262
(idocument_reference
DocumentReference
p3263
(dp3264
g4
F23.363309903870473
sg5
g3262
sg6
I7
sbsS'848'
p3265
(idocument_reference
DocumentReference
p3266
(dp3267
g4
F28.551435720613732
sg5
g3265
sg6
I7
sbsS'377'
p3268
(idocument_reference
DocumentReference
p3269
(dp3270
g4
F20.255850167208166
sg5
g3268
sg6
I4
sbsS'1209'
p3271
(idocument_reference
DocumentReference
p3272
(dp3273
g4
F15.54301515949527
sg5
g3271
sg6
I4
sbsS'376'
p3274
(idocument_reference
DocumentReference
p3275
(dp3276
g4
F16.310399272976017
sg5
g3274
sg6
I4
sbsS'542'
p3277
(idocument_reference
DocumentReference
p3278
(dp3279
g4
F31.511913828027293
sg5
g3277
sg6
I7
sbsS'624'
p3280
(idocument_reference
DocumentReference
p3281
(dp3282
g4
F15.821656808748909
sg5
g3280
sg6
I4
sbsS'1164'
p3283
(idocument_reference
DocumentReference
p3284
(dp3285
g4
F17.396661604893495
sg5
g3283
sg6
I5
sbsS'1127'
p3286
(idocument_reference
DocumentReference
p3287
(dp3288
g4
F20.89896923849223
sg5
g3286
sg6
I4
sbsS'62'
p3289
(idocument_reference
DocumentReference
p3290
(dp3291
g4
F23.522724875606055
sg5
g3289
sg6
I10
sbsS'859'
p3292
(idocument_reference
DocumentReference
p3293
(dp3294
g4
F19.27078284899647
sg5
g3292
sg6
I5
sbsS'1159'
p3295
(idocument_reference
DocumentReference
p3296
(dp3297
g4
F24.733658570360753
sg5
g3295
sg6
I7
sbsS'1208'
p3298
(idocument_reference
DocumentReference
p3299
(dp3300
g4
F23.29596273426862
sg5
g3298
sg6
I4
sbsS'485'
p3301
(idocument_reference
DocumentReference
p3302
(dp3303
g4
F16.411948149466898
sg5
g3301
sg6
I5
sbsS'589'
p3304
(idocument_reference
DocumentReference
p3305
(dp3306
g4
F28.494540901993048
sg5
g3304
sg6
I9
sbsS'390'
p3307
(idocument_reference
DocumentReference
p3308
(dp3309
g4
F16.74845226570964
sg5
g3307
sg6
I4
sbsS'730'
p3310
(idocument_reference
DocumentReference
p3311
(dp3312
g4
F32.07516493779327
sg5
g3310
sg6
I8
sbsS'662'
p3313
(idocument_reference
DocumentReference
p3314
(dp3315
g4
F20.406483323540105
sg5
g3313
sg6
I6
sbsS'733'
p3316
(idocument_reference
DocumentReference
p3317
(dp3318
g4
F19.762272608996987
sg5
g3316
sg6
I5
sbsS'1039'
p3319
(idocument_reference
DocumentReference
p3320
(dp3321
g4
F21.999921904584433
sg5
g3319
sg6
I7
sbsS'1169'
p3322
(idocument_reference
DocumentReference
p3323
(dp3324
g4
F17.71168919916492
sg5
g3322
sg6
I4
sbsS'753'
p3325
(idocument_reference
DocumentReference
p3326
(dp3327
g4
F27.50905353826845
sg5
g3325
sg6
I7
sbsS'623'
p3328
(idocument_reference
DocumentReference
p3329
(dp3330
g4
F17.796278784920997
sg5
g3328
sg6
I5
sbsS'751'
p3331
(idocument_reference
DocumentReference
p3332
(dp3333
g4
F22.979158007533453
sg5
g3331
sg6
I6
sbsS'750'
p3334
(idocument_reference
DocumentReference
p3335
(dp3336
g4
F22.84696564367316
sg5
g3334
sg6
I4
sbsS'757'
p3337
(idocument_reference
DocumentReference
p3338
(dp3339
g4
F27.477595133259793
sg5
g3337
sg6
I7
sbsS'756'
p3340
(idocument_reference
DocumentReference
p3341
(dp3342
g4
F20.661196379555914
sg5
g3340
sg6
I4
sbsS'755'
p3343
(idocument_reference
DocumentReference
p3344
(dp3345
g4
F27.857594999606228
sg5
g3343
sg6
I5
sbsS'754'
p3346
(idocument_reference
DocumentReference
p3347
(dp3348
g4
F23.8604136380052
sg5
g3346
sg6
I6
sbsS'560'
p3349
(idocument_reference
DocumentReference
p3350
(dp3351
g4
F14.78457039734543
sg5
g3349
sg6
I6
sbsS'561'
p3352
(idocument_reference
DocumentReference
p3353
(dp3354
g4
F21.22705419256349
sg5
g3352
sg6
I4
sbsS'562'
p3355
(idocument_reference
DocumentReference
p3356
(dp3357
g4
F13.351396525618378
sg5
g3355
sg6
I3
sbsS'758'
p3358
(idocument_reference
DocumentReference
p3359
(dp3360
g4
F19.942033047145266
sg5
g3358
sg6
I6
sbsS'142'
p3361
(idocument_reference
DocumentReference
p3362
(dp3363
g4
F11.462529450486384
sg5
g3361
sg6
I3
sbsS'565'
p3364
(idocument_reference
DocumentReference
p3365
(dp3366
g4
F32.34280173376093
sg5
g3364
sg6
I7
sbsS'566'
p3367
(idocument_reference
DocumentReference
p3368
(dp3369
g4
F14.121114558650294
sg5
g3367
sg6
I6
sbsS'567'
p3370
(idocument_reference
DocumentReference
p3371
(dp3372
g4
F30.980995087928637
sg5
g3370
sg6
I10
sbsS'739'
p3373
(idocument_reference
DocumentReference
p3374
(dp3375
g4
F24.10540594284443
sg5
g3373
sg6
I4
sbsS'229'
p3376
(idocument_reference
DocumentReference
p3377
(dp3378
g4
F16.129574191801712
sg5
g3376
sg6
I4
sbsS'507'
p3379
(idocument_reference
DocumentReference
p3380
(dp3381
g4
F17.161654236483102
sg5
g3379
sg6
I4
sbsS'227'
p3382
(idocument_reference
DocumentReference
p3383
(dp3384
g4
F17.610797763426902
sg5
g3382
sg6
I5
sbsS'226'
p3385
(idocument_reference
DocumentReference
p3386
(dp3387
g4
F10.762678942311485
sg5
g3385
sg6
I4
sbsS'225'
p3388
(idocument_reference
DocumentReference
p3389
(dp3390
g4
F18.604008411332927
sg5
g3388
sg6
I6
sbsS'224'
p3391
(idocument_reference
DocumentReference
p3392
(dp3393
g4
F40.10178147349234
sg5
g3391
sg6
I11
sbsS'223'
p3394
(idocument_reference
DocumentReference
p3395
(dp3396
g4
F23.45166680583649
sg5
g3394
sg6
I7
sbsS'222'
p3397
(idocument_reference
DocumentReference
p3398
(dp3399
g4
F16.9664482082321
sg5
g3397
sg6
I5
sbsS'221'
p3400
(idocument_reference
DocumentReference
p3401
(dp3402
g4
F17.041121239111355
sg5
g3400
sg6
I4
sbsS'220'
p3403
(idocument_reference
DocumentReference
p3404
(dp3405
g4
F17.633419249054498
sg5
g3403
sg6
I4
sbsS'1025'
p3406
(idocument_reference
DocumentReference
p3407
(dp3408
g4
F15.659645410941023
sg5
g3406
sg6
I4
sbsS'1024'
p3409
(idocument_reference
DocumentReference
p3410
(dp3411
g4
F14.785500707821228
sg5
g3409
sg6
I5
sbsS'1027'
p3412
(idocument_reference
DocumentReference
p3413
(dp3414
g4
F23.112561043684163
sg5
g3412
sg6
I7
sbsS'1026'
p3415
(idocument_reference
DocumentReference
p3416
(dp3417
g4
F20.744242745344284
sg5
g3415
sg6
I7
sbsS'1021'
p3418
(idocument_reference
DocumentReference
p3419
(dp3420
g4
F23.01626146538016
sg5
g3418
sg6
I6
sbsS'1020'
p3421
(idocument_reference
DocumentReference
p3422
(dp3423
g4
F29.938404557336735
sg5
g3421
sg6
I6
sbsS'1188'
p3424
(idocument_reference
DocumentReference
p3425
(dp3426
g4
F26.984280254191635
sg5
g3424
sg6
I6
sbsS'1022'
p3427
(idocument_reference
DocumentReference
p3428
(dp3429
g4
F13.902968051958924
sg5
g3427
sg6
I3
sbsS'1186'
p3430
(idocument_reference
DocumentReference
p3431
(dp3432
g4
F16.008330175240022
sg5
g3430
sg6
I4
sbsS'1187'
p3433
(idocument_reference
DocumentReference
p3434
(dp3435
g4
F12.03316069712447
sg5
g3433
sg6
I4
sbsS'1184'
p3436
(idocument_reference
DocumentReference
p3437
(dp3438
g4
F22.66693409487985
sg5
g3436
sg6
I7
sbsS'1185'
p3439
(idocument_reference
DocumentReference
p3440
(dp3441
g4
F27.07841773704866
sg5
g3439
sg6
I10
sbsS'1029'
p3442
(idocument_reference
DocumentReference
p3443
(dp3444
g4
F31.980320831646356
sg5
g3442
sg6
I6
sbsS'1183'
p3445
(idocument_reference
DocumentReference
p3446
(dp3447
g4
F17.234592507946054
sg5
g3445
sg6
I5
sbsS'1180'
p3448
(idocument_reference
DocumentReference
p3449
(dp3450
g4
F19.76219291855826
sg5
g3448
sg6
I4
sbsS'503'
p3451
(idocument_reference
DocumentReference
p3452
(dp3453
g4
F17.516743302252532
sg5
g3451
sg6
I8
sbsS'726'
p3454
(idocument_reference
DocumentReference
p3455
(dp3456
g4
F33.50743721533154
sg5
g3454
sg6
I8
sbsS'727'
p3457
(idocument_reference
DocumentReference
p3458
(dp3459
g4
F15.320768313874353
sg5
g3457
sg6
I4
sbsS'724'
p3460
(idocument_reference
DocumentReference
p3461
(dp3462
g4
F18.867140436668286
sg5
g3460
sg6
I9
sbsS'725'
p3463
(idocument_reference
DocumentReference
p3464
(dp3465
g4
F26.38504076879114
sg5
g3463
sg6
I9
sbsS'722'
p3466
(idocument_reference
DocumentReference
p3467
(dp3468
g4
F21.14685465644536
sg5
g3466
sg6
I5
sbsS'723'
p3469
(idocument_reference
DocumentReference
p3470
(dp3471
g4
F22.49593617749788
sg5
g3469
sg6
I7
sbsS'720'
p3472
(idocument_reference
DocumentReference
p3473
(dp3474
g4
F13.135572280039352
sg5
g3472
sg6
I4
sbsS'721'
p3475
(idocument_reference
DocumentReference
p3476
(dp3477
g4
F17.927267203044206
sg5
g3475
sg6
I5
sbsS'372'
p3478
(idocument_reference
DocumentReference
p3479
(dp3480
g4
F22.21127858006677
sg5
g3478
sg6
I6
sbsS'1160'
p3481
(idocument_reference
DocumentReference
p3482
(dp3483
g4
F21.156012977115633
sg5
g3481
sg6
I7
sbsS'501'
p3484
(idocument_reference
DocumentReference
p3485
(dp3486
g4
F21.641433329193276
sg5
g3484
sg6
I4
sbsS'622'
p3487
(idocument_reference
DocumentReference
p3488
(dp3489
g4
F28.655163867269728
sg5
g3487
sg6
I10
sbsS'728'
p3490
(idocument_reference
DocumentReference
p3491
(dp3492
g4
F18.114895802342417
sg5
g3490
sg6
I4
sbsS'729'
p3493
(idocument_reference
DocumentReference
p3494
(dp3495
g4
F14.613668600359325
sg5
g3493
sg6
I4
sbsS'151'
p3496
(idocument_reference
DocumentReference
p3497
(dp3498
g4
F22.16561586957747
sg5
g3496
sg6
I5
sbsS'150'
p3499
(idocument_reference
DocumentReference
p3500
(dp3501
g4
F25.756132698289274
sg5
g3499
sg6
I7
sbsS'153'
p3502
(idocument_reference
DocumentReference
p3503
(dp3504
g4
F20.612334752020967
sg5
g3502
sg6
I7
sbsS'606'
p3505
(idocument_reference
DocumentReference
p3506
(dp3507
g4
F53.45961295982942
sg5
g3505
sg6
I11
sbsS'601'
p3508
(idocument_reference
DocumentReference
p3509
(dp3510
g4
F20.575473242196722
sg5
g3508
sg6
I7
sbsS'600'
p3511
(idocument_reference
DocumentReference
p3512
(dp3513
g4
F19.117185429853606
sg5
g3511
sg6
I4
sbsS'603'
p3514
(idocument_reference
DocumentReference
p3515
(dp3516
g4
F22.721634737400805
sg5
g3514
sg6
I6
sbsS'156'
p3517
(idocument_reference
DocumentReference
p3518
(dp3519
g4
F18.722889607965843
sg5
g3517
sg6
I4
sbsS'159'
p3520
(idocument_reference
DocumentReference
p3521
(dp3522
g4
F19.458843269931304
sg5
g3520
sg6
I5
sbsS'158'
p3523
(idocument_reference
DocumentReference
p3524
(dp3525
g4
F12.895155846395996
sg5
g3523
sg6
I3
sbsS'1207'
p3526
(idocument_reference
DocumentReference
p3527
(dp3528
g4
F31.144925160140836
sg5
g3526
sg6
I11
sbsS'1206'
p3529
(idocument_reference
DocumentReference
p3530
(dp3531
g4
F29.156723017122687
sg5
g3529
sg6
I8
sbsS'1201'
p3532
(idocument_reference
DocumentReference
p3533
(dp3534
g4
F25.917716894237927
sg5
g3532
sg6
I8
sbsS'1210'
p3535
(idocument_reference
DocumentReference
p3536
(dp3537
g4
F22.370623281588585
sg5
g3535
sg6
I4
sbsS'1203'
p3538
(idocument_reference
DocumentReference
p3539
(dp3540
g4
F21.786724836840136
sg5
g3538
sg6
I7
sbsS'1202'
p3541
(idocument_reference
DocumentReference
p3542
(dp3543
g4
F28.409333358253974
sg5
g3541
sg6
I12
sbsS'1204'
p3544
(idocument_reference
DocumentReference
p3545
(dp3546
g4
F45.89449237207915
sg5
g3544
sg6
I11
sbsS'1211'
p3547
(idocument_reference
DocumentReference
p3548
(dp3549
g4
F16.245787146731015
sg5
g3547
sg6
I4
sbsS'83'
p3550
(idocument_reference
DocumentReference
p3551
(dp3552
g4
F23.180766867770984
sg5
g3550
sg6
I6
sbsS'1161'
p3553
(idocument_reference
DocumentReference
p3554
(dp3555
g4
F13.2271924711942
sg5
g3553
sg6
I4
sbsS'1216'
p3556
(idocument_reference
DocumentReference
p3557
(dp3558
g4
F27.346512456657493
sg5
g3556
sg6
I6
sbsS'500'
p3559
(idocument_reference
DocumentReference
p3560
(dp3561
g4
F17.0285578639563
sg5
g3559
sg6
I5
sbsS'399'
p3562
(idocument_reference
DocumentReference
p3563
(dp3564
g4
F17.73940095246076
sg5
g3562
sg6
I6
sbsS'635'
p3565
(idocument_reference
DocumentReference
p3566
(dp3567
g4
F23.932854988331123
sg5
g3565
sg6
I6
sbsS'959'
p3568
(idocument_reference
DocumentReference
p3569
(dp3570
g4
F24.26350607304638
sg5
g3568
sg6
I9
sbsS'958'
p3571
(idocument_reference
DocumentReference
p3572
(dp3573
g4
F13.715881142218274
sg5
g3571
sg6
I6
sbsS'398'
p3574
(idocument_reference
DocumentReference
p3575
(dp3576
g4
F18.471872347181918
sg5
g3574
sg6
I4
sbsS'143'
p3577
(idocument_reference
DocumentReference
p3578
(dp3579
g4
F38.02490291399289
sg5
g3577
sg6
I10
sbsS'48'
p3580
(idocument_reference
DocumentReference
p3581
(dp3582
g4
F24.548958568839346
sg5
g3580
sg6
I7
sbsS'49'
p3583
(idocument_reference
DocumentReference
p3584
(dp3585
g4
F23.704090540688057
sg5
g3583
sg6
I6
sbsS'46'
p3586
(idocument_reference
DocumentReference
p3587
(dp3588
g4
F29.116743469649276
sg5
g3586
sg6
I7
sbsS'950'
p3589
(idocument_reference
DocumentReference
p3590
(dp3591
g4
F25.119064810004524
sg5
g3589
sg6
I6
sbsS'953'
p3592
(idocument_reference
DocumentReference
p3593
(dp3594
g4
F34.19526309936757
sg5
g3592
sg6
I9
sbsS'45'
p3595
(idocument_reference
DocumentReference
p3596
(dp3597
g4
F17.18009842235118
sg5
g3595
sg6
I4
sbsS'955'
p3598
(idocument_reference
DocumentReference
p3599
(dp3600
g4
F38.20852547203505
sg5
g3598
sg6
I8
sbsS'954'
p3601
(idocument_reference
DocumentReference
p3602
(dp3603
g4
F20.68996990404505
sg5
g3601
sg6
I4
sbsS'40'
p3604
(idocument_reference
DocumentReference
p3605
(dp3606
g4
F28.966569095078437
sg5
g3604
sg6
I5
sbsS'956'
p3607
(idocument_reference
DocumentReference
p3608
(dp3609
g4
F44.657533512356224
sg5
g3607
sg6
I12
sbsS'1111'
p3610
(idocument_reference
DocumentReference
p3611
(dp3612
g4
F15.66293664086848
sg5
g3610
sg6
I5
sbsS'1110'
p3613
(idocument_reference
DocumentReference
p3614
(dp3615
g4
F26.415940868378595
sg5
g3613
sg6
I9
sbsS'1113'
p3616
(idocument_reference
DocumentReference
p3617
(dp3618
g4
F18.630222136020897
sg5
g3616
sg6
I5
sbsS'1112'
p3619
(idocument_reference
DocumentReference
p3620
(dp3621
g4
F30.002003172824566
sg5
g3619
sg6
I8
sbsS'1115'
p3622
(idocument_reference
DocumentReference
p3623
(dp3624
g4
F26.871652530726042
sg5
g3622
sg6
I9
sbsS'1114'
p3625
(idocument_reference
DocumentReference
p3626
(dp3627
g4
F14.585638641401907
sg5
g3625
sg6
I3
sbsS'1117'
p3628
(idocument_reference
DocumentReference
p3629
(dp3630
g4
F20.072836486820552
sg5
g3628
sg6
I4
sbsS'464'
p3631
(idocument_reference
DocumentReference
p3632
(dp3633
g4
F16.116859174252383
sg5
g3631
sg6
I5
sbsS'1119'
p3634
(idocument_reference
DocumentReference
p3635
(dp3636
g4
F24.18274111820591
sg5
g3634
sg6
I4
sbsS'1118'
p3637
(idocument_reference
DocumentReference
p3638
(dp3639
g4
F20.39672239561057
sg5
g3637
sg6
I5
sbsS'1218'
p3640
(idocument_reference
DocumentReference
p3641
(dp3642
g4
F28.922638754058898
sg5
g3640
sg6
I7
sbsS'374'
p3643
(idocument_reference
DocumentReference
p3644
(dp3645
g4
F29.650883475078775
sg5
g3643
sg6
I8
sbsS'797'
p3646
(idocument_reference
DocumentReference
p3647
(dp3648
g4
F16.245329665560565
sg5
g3646
sg6
I4
sbsS'508'
p3649
(idocument_reference
DocumentReference
p3650
(dp3651
g4
F32.626410058954534
sg5
g3649
sg6
I11
sbsS'796'
p3652
(idocument_reference
DocumentReference
p3653
(dp3654
g4
F18.219737995816324
sg5
g3652
sg6
I6
sbsS'591'
p3655
(idocument_reference
DocumentReference
p3656
(dp3657
g4
F23.383325143604385
sg5
g3655
sg6
I6
sbsS'489'
p3658
(idocument_reference
DocumentReference
p3659
(dp3660
g4
F13.971166655705272
sg5
g3658
sg6
I4
sbsS'488'
p3661
(idocument_reference
DocumentReference
p3662
(dp3663
g4
F10.95748402715678
sg5
g3661
sg6
I3
sbsS'487'
p3664
(idocument_reference
DocumentReference
p3665
(dp3666
g4
F20.947635594629556
sg5
g3664
sg6
I8
sbsS'486'
p3667
(idocument_reference
DocumentReference
p3668
(dp3669
g4
F24.93007634828424
sg5
g3667
sg6
I5
sbsS'869'
p3670
(idocument_reference
DocumentReference
p3671
(dp3672
g4
F23.20948965857004
sg5
g3670
sg6
I5
sbsS'484'
p3673
(idocument_reference
DocumentReference
p3674
(dp3675
g4
F31.300519973063338
sg5
g3673
sg6
I9
sbsS'483'
p3676
(idocument_reference
DocumentReference
p3677
(dp3678
g4
F21.519593836758418
sg5
g3676
sg6
I7
sbsS'482'
p3679
(idocument_reference
DocumentReference
p3680
(dp3681
g4
F22.58674877900591
sg5
g3679
sg6
I10
sbsS'481'
p3682
(idocument_reference
DocumentReference
p3683
(dp3684
g4
F20.44665991673502
sg5
g3682
sg6
I6
sbsS'480'
p3685
(idocument_reference
DocumentReference
p3686
(dp3687
g4
F11.605546238891584
sg5
g3685
sg6
I6
sbsS'790'
p3688
(idocument_reference
DocumentReference
p3689
(dp3690
g4
F21.69338709133962
sg5
g3688
sg6
I8
sbsS'472'
p3691
(idocument_reference
DocumentReference
p3692
(dp3693
g4
F14.734012803139427
sg5
g3691
sg6
I4
sbsS'473'
p3694
(idocument_reference
DocumentReference
p3695
(dp3696
g4
F17.947760742270102
sg5
g3694
sg6
I6
sbsS'470'
p3697
(idocument_reference
DocumentReference
p3698
(dp3699
g4
F20.451956924980152
sg5
g3697
sg6
I7
sbsS'471'
p3700
(idocument_reference
DocumentReference
p3701
(dp3702
g4
F18.901399554275823
sg5
g3700
sg6
I7
sbsS'476'
p3703
(idocument_reference
DocumentReference
p3704
(dp3705
g4
F22.771574100072627
sg5
g3703
sg6
I9
sbsS'477'
p3706
(idocument_reference
DocumentReference
p3707
(dp3708
g4
F13.427194039492612
sg5
g3706
sg6
I5
sbsS'474'
p3709
(idocument_reference
DocumentReference
p3710
(dp3711
g4
F21.191930122174988
sg5
g3709
sg6
I4
sbsS'475'
p3712
(idocument_reference
DocumentReference
p3713
(dp3714
g4
F22.219985744580804
sg5
g3712
sg6
I4
sbsS'478'
p3715
(idocument_reference
DocumentReference
p3716
(dp3717
g4
F16.849734380528037
sg5
g3715
sg6
I7
sbsS'479'
p3718
(idocument_reference
DocumentReference
p3719
(dp3720
g4
F16.796345820984364
sg5
g3718
sg6
I4
sbs.