(dp0
S'24'
p1
(F0.001935483870967742
F0.0018451749734888652
tp2
sS'25'
p3
(F0.001176470588235294
F0.0029333333333333334
tp4
sS'26'
p5
(F0.0006060606060606061
F0.00043478260869565214
tp6
sS'27'
p7
(F0.005454545454545454
F0.0027192982456140345
tp8
sS'20'
p9
(F0.012173913043478262
F0.021331760002011722
tp10
sS'21'
p11
(F0.0008
F0.002
tp12
sS'22'
p13
(F0.004285714285714285
F0.030682186234817808
tp14
sS'23'
p15
(F0.0005714285714285714
F0.0016666666666666666
tp16
sS'28'
p17
(F0.001176470588235294
F0.004333333333333333
tp18
sS'29'
p19
(F0.002727272727272727
F0.004767676767676767
tp20
sS'4'
p21
(F0.0
F0.0
tp22
sS'8'
p23
(F0.0009090909090909091
F0.001176470588235294
tp24
sS'59'
p25
(F0.0020689655172413794
F0.0296078431372549
tp26
sS'58'
p27
(F0.003157894736842105
F0.02053201184780132
tp28
sS'55'
p29
(F0.0025
F0.007482993197278911
tp30
sS'54'
p31
(F0.004838709677419355
F0.05821428571428571
tp32
sS'57'
p33
(F0.0058823529411764705
F0.01994491699118672
tp34
sS'56'
p35
(F0.00375
F0.004755555555555555
tp36
sS'51'
p37
(F0.0008298755186721993
F0.006382653061224489
tp38
sS'50'
p39
(F0.0024
F0.007536231884057971
tp40
sS'53'
p41
(F0.002608695652173913
F0.007555555555555555
tp42
sS'52'
p43
(F0.0
F0.0
tp44
sS'88'
p45
(F0.0014285714285714286
F0.001176470588235294
tp46
sS'89'
p47
(F0.007058823529411764
F0.00603030303030303
tp48
sS'82'
p49
(F0.0032258064516129032
F0.007425069921179761
tp50
sS'83'
p51
(F0.000625
F0.001176470588235294
tp52
sS'80'
p53
(F0.001764705882352941
F0.0026422764227642275
tp54
sS'81'
p55
(F0.0021428571428571425
F0.0022575516693163753
tp56
sS'86'
p57
(F0.006382978723404254
F0.014402777777777778
tp58
sS'87'
p59
(F0.007894736842105263
F0.02327156583254144
tp60
sS'84'
p61
(F0.00375
F0.009333333333333334
tp62
sS'85'
p63
(F0.003870967741935484
F0.004710167880899588
tp64
sS'3'
p65
(F0.009767441860465116
F0.021789536234232774
tp66
sS'7'
p67
(F0.0007142857142857143
F0.0009523809523809524
tp68
sS'100'
p69
(F0.0
F0.0
tp70
sS'39'
p71
(F0.0018518518518518517
F0.013457214464733263
tp72
sS'38'
p73
(F0.0022641509433962265
F0.004875283446712017
tp74
sS'33'
p75
(F0.03684210526315789
F0.11333323454171085
tp76
sS'32'
p77
(F0.0006666666666666666
F0.0007142857142857143
tp78
sS'31'
p79
(F0.003448275862068966
F0.005893617973505191
tp80
sS'30'
p81
(F0.0
F0.0
tp82
sS'37'
p83
(F0.02142857142857143
F0.10673316157526685
tp84
sS'36'
p85
(F0.0
F0.0
tp86
sS'35'
p87
(F0.00857142857142857
F0.003814151747655584
tp88
sS'34'
p89
(F0.007692307692307692
F0.03087899728997291
tp90
sS'60'
p91
(F0.000588235294117647
F0.0015384615384615385
tp92
sS'61'
p93
(F0.006
F0.02286535078576157
tp94
sS'62'
p95
(F0.007638888888888889
F0.06434449608362652
tp96
sS'63'
p97
(F0.003076923076923077
F0.0110479375696767
tp98
sS'64'
p99
(F0.006000000000000001
F0.012551507632152794
tp100
sS'65'
p101
(F0.014042553191489362
F0.0981524438799094
tp102
sS'66'
p103
(F0.0031746031746031746
F0.015739130434782606
tp104
sS'67'
p105
(F0.0
F0.0
tp106
sS'68'
p107
(F0.006666666666666666
F0.020577746577746577
tp108
sS'69'
p109
(F0.004
F0.0020519480519480522
tp110
sS'2'
p111
(F0.0
F0.0
tp112
sS'6'
p113
(F0.0025
F0.0021693121693121694
tp114
sS'99'
p115
(F0.0
F0.0
tp116
sS'98'
p117
(F0.008
F0.0036985125858123567
tp118
sS'91'
p119
(F0.0029605263157894733
F0.03580136831767266
tp120
sS'90'
p121
(F0.004285714285714285
F0.006431372549019609
tp122
sS'93'
p123
(F0.0011111111111111111
F0.0005405405405405405
tp124
sS'92'
p125
(F0.002777777777777778
F0.01237732426303855
tp126
sS'95'
p127
(F0.0022222222222222222
F0.0005263157894736842
tp128
sS'94'
p129
(F0.0027906976744186047
F0.022933810375670837
tp130
sS'97'
p131
(F0.0018181818181818182
F0.0008333333333333333
tp132
sS'96'
p133
(F0.01
F0.005632034632034631
tp134
sS'11'
p135
(F0.06
F0.044497222947293295
tp136
sS'10'
p137
(F0.0024
F0.0032467532467532465
tp138
sS'13'
p139
(F0.0025
F0.0020460358056265983
tp140
sS'12'
p141
(F0.0
F0.0
tp142
sS'15'
p143
(F0.001153846153846154
F0.0056813186813186815
tp144
sS'14'
p145
(F0.002181818181818182
F0.00635230352303523
tp146
sS'17'
p147
(F0.0036363636363636364
F0.015636363636363636
tp148
sS'16'
p149
(F0.005
F0.029009800971633002
tp150
sS'19'
p151
(F0.0
F0.0
tp152
sS'18'
p153
(F0.005714285714285714
F0.005702260702260702
tp154
sS'48'
p155
(F0.0006666666666666666
F0.0004878048780487805
tp156
sS'49'
p157
(F0.0005555555555555556
F0.00043478260869565214
tp158
sS'46'
p159
(F0.003333333333333333
F0.0012607709750566893
tp160
sS'47'
p161
(F0.001
F0.0015555555555555557
tp162
sS'44'
p163
(F0.004
F0.015664646286843085
tp164
sS'45'
p165
(F0.001
F0.000425531914893617
tp166
sS'42'
p167
(F0.004255319148936169
F0.011211307461307461
tp168
sS'43'
p169
(F0.009183673469387754
F0.029298106288463473
tp170
sS'40'
p171
(F0.0013698630136986301
F0.005372250078132431
tp172
sS'41'
p173
(F0.0
F0.0
tp174
sS'1'
p175
(F0.016470588235294115
F0.019619655710756717
tp176
sS'5'
p177
(F0.0068702290076335885
F0.03365396559405776
tp178
sS'9'
p179
(F0.002
F0.0005555555555555556
tp180
sS'77'
p181
(F0.002439024390243903
F0.0067467532467532475
tp182
sS'76'
p183
(F0.0
F0.0
tp184
sS'75'
p185
(F0.009523809523809523
F0.00500501253132832
tp186
sS'74'
p187
(F0.0
F0.0
tp188
sS'73'
p189
(F0.0011111111111111111
F0.0005555555555555556
tp190
sS'72'
p191
(F0.004615384615384616
F0.00205
tp192
sS'71'
p193
(F0.0
F0.0
tp194
sS'70'
p195
(F0.001176470588235294
F0.0005405405405405405
tp196
sS'79'
p197
(F0.0027906976744186047
F0.0040384615384615385
tp198
sS'78'
p199
(F0.002597402597402597
F0.007458928847044297
tp200
s.