(dp0
S'24'
p1
(F0.0006451612903225806
F0.0008695652173913043
tp2
sS'25'
p3
(F0.00392156862745098
F0.0054207423781891875
tp4
sS'26'
p5
(F0.01272727272727273
F0.05876254180602007
tp6
sS'27'
p7
(F0.005454545454545454
F0.002994652406417112
tp8
sS'20'
p9
(F0.006521739130434783
F0.008325111580925533
tp10
sS'21'
p11
(F0.0008
F0.001
tp12
sS'22'
p13
(F0.006
F0.028020408163265308
tp14
sS'23'
p15
(F0.0005714285714285714
F0.001
tp16
sS'28'
p17
(F0.001176470588235294
F0.004285714285714285
tp18
sS'29'
p19
(F0.002727272727272727
F0.006936274509803921
tp20
sS'4'
p21
(F0.0022222222222222222
F0.0015384615384615385
tp22
sS'8'
p23
(F0.0009090909090909091
F0.0009523809523809524
tp24
sS'59'
p25
(F0.0020689655172413794
F0.01952380952380952
tp26
sS'58'
p27
(F0.002105263157894737
F0.020232323232323234
tp28
sS'55'
p29
(F0.0008333333333333333
F0.004
tp30
sS'54'
p31
(F0.006774193548387097
F0.032730422730422724
tp32
sS'57'
p33
(F0.002352941176470588
F0.01206201550387597
tp34
sS'56'
p35
(F0.00375
F0.003
tp36
sS'51'
p37
(F0.00024896265560165974
F0.0026785714285714286
tp38
sS'50'
p39
(F0.0008
F0.005
tp40
sS'53'
p41
(F0.0008695652173913043
F0.004
tp42
sS'52'
p43
(F0.0
F0.0
tp44
sS'88'
p45
(F0.0014285714285714286
F0.01
tp46
sS'89'
p47
(F0.003529411764705882
F0.0014392991239048812
tp48
sS'82'
p49
(F0.0003225806451612903
F0.00041666666666666664
tp50
sS'83'
p51
(F0.0
F0.0
tp52
sS'80'
p53
(F0.001764705882352941
F0.0029756097560975615
tp54
sS'81'
p55
(F0.0007142857142857143
F0.000425531914893617
tp56
sS'86'
p57
(F0.000425531914893617
F0.002857142857142857
tp58
sS'87'
p59
(F0.003157894736842105
F0.0096985446985447
tp60
sS'84'
p61
(F0.00375
F0.00488888888888889
tp62
sS'85'
p63
(F0.0006451612903225806
F0.0006666666666666666
tp64
sS'3'
p65
(F0.0013953488372093023
F0.005858585858585858
tp66
sS'7'
p67
(F0.0007142857142857143
F0.00045454545454545455
tp68
sS'100'
p69
(F0.0
F0.0
tp70
sS'39'
p71
(F0.006790123456790123
F0.06647036658466442
tp72
sS'38'
p73
(F0.003773584905660378
F0.01042943063352045
tp74
sS'33'
p75
(F0.007368421052631579
F0.027077922077922076
tp76
sS'32'
p77
(F0.0
F0.0
tp78
sS'31'
p79
(F0.0
F0.0
tp80
sS'30'
p81
(F0.003529411764705882
F0.0017142857142857142
tp82
sS'37'
p83
(F0.013469387755102041
F0.06262845370032072
tp84
sS'36'
p85
(F0.0
F0.0
tp86
sS'35'
p87
(F0.00857142857142857
F0.003849802371541502
tp88
sS'34'
p89
(F0.005128205128205127
F0.027735632183908045
tp90
sS'60'
p91
(F0.003529411764705882
F0.011752136752136752
tp92
sS'61'
p93
(F0.0017142857142857142
F0.007200099552015928
tp94
sS'62'
p95
(F0.002916666666666667
F0.02783115383709149
tp96
sS'63'
p97
(F0.0015384615384615385
F0.005851063829787234
tp98
sS'64'
p99
(F0.0024
F0.005412280701754386
tp100
sS'65'
p101
(F0.003191489361702127
F0.014631329454858866
tp102
sS'66'
p103
(F0.0019047619047619048
F0.0068874458874458875
tp104
sS'67'
p105
(F0.0014285714285714286
F0.000625
tp106
sS'68'
p107
(F0.0044444444444444444
F0.009590733590733591
tp108
sS'69'
p109
(F0.0
F0.0
tp110
sS'2'
p111
(F0.002857142857142857
F0.0005
tp112
sS'6'
p113
(F0.0008333333333333333
F0.0004
tp114
sS'99'
p115
(F0.0
F0.0
tp116
sS'98'
p117
(F0.008
F0.002926505452821242
tp118
sS'91'
p119
(F0.0023684210526315787
F0.022022234764961145
tp120
sS'90'
p121
(F0.004285714285714285
F0.0030252560794432714
tp122
sS'93'
p123
(F0.0011111111111111111
F0.0006451612903225806
tp124
sS'92'
p125
(F0.0018518518518518517
F0.008312936205866886
tp126
sS'95'
p127
(F0.0
F0.0
tp128
sS'94'
p129
(F0.009767441860465116
F0.032823467717562706
tp130
sS'97'
p131
(F0.0
F0.0
tp132
sS'96'
p133
(F0.0
F0.0
tp134
sS'11'
p135
(F0.002727272727272727
F0.0012081632653061225
tp136
sS'10'
p137
(F0.0024
F0.002111111111111111
tp138
sS'13'
p139
(F0.0025
F0.003176470588235294
tp140
sS'12'
p141
(F0.0
F0.0
tp142
sS'15'
p143
(F0.0040384615384615385
F0.012723491956866341
tp144
sS'14'
p145
(F0.002181818181818182
F0.010167278661770704
tp146
sS'17'
p147
(F0.002181818181818182
F0.005895348837209302
tp148
sS'16'
p149
(F0.005
F0.027506951420206982
tp150
sS'19'
p151
(F0.002727272727272727
F0.0016843971631205672
tp152
sS'18'
p153
(F0.0009523809523809524
F0.00125
tp154
sS'48'
p155
(F0.002
F0.002176470588235294
tp156
sS'49'
p157
(F0.0016666666666666666
F0.0036507936507936506
tp158
sS'46'
p159
(F0.0
F0.0
tp160
sS'47'
p161
(F0.001
F0.001225531914893617
tp162
sS'44'
p163
(F0.00042857142857142855
F0.021081081081081077
tp164
sS'45'
p165
(F0.01
F0.0052646463009480594
tp166
sS'42'
p167
(F0.002553191489361702
F0.0034264705882352943
tp168
sS'43'
p169
(F0.011224489795918367
F0.056797099919051144
tp170
sS'40'
p171
(F0.0038356164383561643
F0.01852396852156442
tp172
sS'41'
p173
(F0.0013333333333333333
F0.0004651162790697674
tp174
sS'1'
p175
(F0.000588235294117647
F0.01
tp176
sS'5'
p177
(F0.01603053435114504
F0.09709248585593123
tp178
sS'9'
p179
(F0.0
F0.0
tp180
sS'77'
p181
(F0.0007317073170731708
F0.0012878048780487804
tp182
sS'76'
p183
(F0.0
F0.0
tp184
sS'75'
p185
(F0.0009523809523809524
F0.0014285714285714286
tp186
sS'74'
p187
(F0.0
F0.0
tp188
sS'73'
p189
(F0.0
F0.0
tp190
sS'72'
p191
(F0.0
F0.0
tp192
sS'71'
p193
(F0.0
F0.0
tp194
sS'70'
p195
(F0.001176470588235294
F0.003333333333333333
tp196
sS'79'
p197
(F0.0027906976744186047
F0.0033
tp198
sS'78'
p199
(F0.002597402597402597
F0.005780522735409953
tp200
s.